ARM GAS  C:\Users\cordi\AppData\Local\Temp\ccPCLB4O.s 			page 1


   1              		.cpu cortex-m4
   2              		.arch armv7e-m
   3              		.fpu fpv4-sp-d16
   4              		.eabi_attribute 27, 1
   5              		.eabi_attribute 28, 1
   6              		.eabi_attribute 20, 1
   7              		.eabi_attribute 21, 1
   8              		.eabi_attribute 23, 3
   9              		.eabi_attribute 24, 1
  10              		.eabi_attribute 25, 1
  11              		.eabi_attribute 26, 1
  12              		.eabi_attribute 30, 1
  13              		.eabi_attribute 34, 1
  14              		.eabi_attribute 18, 4
  15              		.file	"gpio.c"
  16              		.text
  17              	.Ltext0:
  18              		.cfi_sections	.debug_frame
  19              		.file 1 "Core/Src/gpio.c"
  20              		.section	.text.MX_GPIO_Init,"ax",%progbits
  21              		.align	1
  22              		.global	MX_GPIO_Init
  23              		.syntax unified
  24              		.thumb
  25              		.thumb_func
  27              	MX_GPIO_Init:
  28              	.LFB123:
   1:Core/Src/gpio.c **** /* USER CODE BEGIN Header */
   2:Core/Src/gpio.c **** /**
   3:Core/Src/gpio.c ****   ******************************************************************************
   4:Core/Src/gpio.c ****   * @file    gpio.c
   5:Core/Src/gpio.c ****   * @brief   This file provides code for the configuration
   6:Core/Src/gpio.c ****   *          of all used GPIO pins.
   7:Core/Src/gpio.c ****   ******************************************************************************
   8:Core/Src/gpio.c ****   * @attention
   9:Core/Src/gpio.c ****   *
  10:Core/Src/gpio.c ****   * Copyright (c) 2023 STMicroelectronics.
  11:Core/Src/gpio.c ****   * All rights reserved.
  12:Core/Src/gpio.c ****   *
  13:Core/Src/gpio.c ****   * This software is licensed under terms that can be found in the LICENSE file
  14:Core/Src/gpio.c ****   * in the root directory of this software component.
  15:Core/Src/gpio.c ****   * If no LICENSE file comes with this software, it is provided AS-IS.
  16:Core/Src/gpio.c ****   *
  17:Core/Src/gpio.c ****   ******************************************************************************
  18:Core/Src/gpio.c ****   */
  19:Core/Src/gpio.c **** /* USER CODE END Header */
  20:Core/Src/gpio.c **** 
  21:Core/Src/gpio.c **** /* Includes ------------------------------------------------------------------*/
  22:Core/Src/gpio.c **** #include "gpio.h"
  23:Core/Src/gpio.c **** 
  24:Core/Src/gpio.c **** /* USER CODE BEGIN 0 */
  25:Core/Src/gpio.c **** 
  26:Core/Src/gpio.c **** /* USER CODE END 0 */
  27:Core/Src/gpio.c **** 
  28:Core/Src/gpio.c **** /*----------------------------------------------------------------------------*/
  29:Core/Src/gpio.c **** /* Configure GPIO                                                             */
  30:Core/Src/gpio.c **** /*----------------------------------------------------------------------------*/
ARM GAS  C:\Users\cordi\AppData\Local\Temp\ccPCLB4O.s 			page 2


  31:Core/Src/gpio.c **** /* USER CODE BEGIN 1 */
  32:Core/Src/gpio.c **** 
  33:Core/Src/gpio.c **** /* USER CODE END 1 */
  34:Core/Src/gpio.c **** 
  35:Core/Src/gpio.c **** /** Configure pins as
  36:Core/Src/gpio.c ****         * Analog
  37:Core/Src/gpio.c ****         * Input
  38:Core/Src/gpio.c ****         * Output
  39:Core/Src/gpio.c ****         * EVENT_OUT
  40:Core/Src/gpio.c ****         * EXTI
  41:Core/Src/gpio.c ****         * Free pins are configured automatically as Analog (this feature is enabled through
  42:Core/Src/gpio.c ****         * the Code Generation settings)
  43:Core/Src/gpio.c ****      PA8   ------> RCC_MCO
  44:Core/Src/gpio.c **** */
  45:Core/Src/gpio.c **** void MX_GPIO_Init(void)
  46:Core/Src/gpio.c **** {
  29              		.loc 1 46 1 view -0
  30              		.cfi_startproc
  31              		@ args = 0, pretend = 0, frame = 40
  32              		@ frame_needed = 0, uses_anonymous_args = 0
  33 0000 2DE9F043 		push	{r4, r5, r6, r7, r8, r9, lr}
  34              		.cfi_def_cfa_offset 28
  35              		.cfi_offset 4, -28
  36              		.cfi_offset 5, -24
  37              		.cfi_offset 6, -20
  38              		.cfi_offset 7, -16
  39              		.cfi_offset 8, -12
  40              		.cfi_offset 9, -8
  41              		.cfi_offset 14, -4
  42 0004 8BB0     		sub	sp, sp, #44
  43              		.cfi_def_cfa_offset 72
  47:Core/Src/gpio.c **** 
  48:Core/Src/gpio.c ****   GPIO_InitTypeDef GPIO_InitStruct = {0};
  44              		.loc 1 48 3 view .LVU1
  45              		.loc 1 48 20 is_stmt 0 view .LVU2
  46 0006 0024     		movs	r4, #0
  47 0008 0594     		str	r4, [sp, #20]
  48 000a 0694     		str	r4, [sp, #24]
  49 000c 0794     		str	r4, [sp, #28]
  50 000e 0894     		str	r4, [sp, #32]
  51 0010 0994     		str	r4, [sp, #36]
  49:Core/Src/gpio.c **** 
  50:Core/Src/gpio.c ****   /* GPIO Ports Clock Enable */
  51:Core/Src/gpio.c ****   __HAL_RCC_GPIOC_CLK_ENABLE();
  52              		.loc 1 51 3 is_stmt 1 view .LVU3
  53              	.LBB2:
  54              		.loc 1 51 3 view .LVU4
  55              		.loc 1 51 3 view .LVU5
  56 0012 5F4B     		ldr	r3, .L3
  57 0014 5A69     		ldr	r2, [r3, #20]
  58 0016 42F40022 		orr	r2, r2, #524288
  59 001a 5A61     		str	r2, [r3, #20]
  60              		.loc 1 51 3 view .LVU6
  61 001c 5A69     		ldr	r2, [r3, #20]
  62 001e 02F40022 		and	r2, r2, #524288
  63 0022 0192     		str	r2, [sp, #4]
  64              		.loc 1 51 3 view .LVU7
ARM GAS  C:\Users\cordi\AppData\Local\Temp\ccPCLB4O.s 			page 3


  65 0024 019A     		ldr	r2, [sp, #4]
  66              	.LBE2:
  67              		.loc 1 51 3 view .LVU8
  52:Core/Src/gpio.c ****   __HAL_RCC_GPIOF_CLK_ENABLE();
  68              		.loc 1 52 3 view .LVU9
  69              	.LBB3:
  70              		.loc 1 52 3 view .LVU10
  71              		.loc 1 52 3 view .LVU11
  72 0026 5A69     		ldr	r2, [r3, #20]
  73 0028 42F48002 		orr	r2, r2, #4194304
  74 002c 5A61     		str	r2, [r3, #20]
  75              		.loc 1 52 3 view .LVU12
  76 002e 5A69     		ldr	r2, [r3, #20]
  77 0030 02F48002 		and	r2, r2, #4194304
  78 0034 0292     		str	r2, [sp, #8]
  79              		.loc 1 52 3 view .LVU13
  80 0036 029A     		ldr	r2, [sp, #8]
  81              	.LBE3:
  82              		.loc 1 52 3 view .LVU14
  53:Core/Src/gpio.c ****   __HAL_RCC_GPIOA_CLK_ENABLE();
  83              		.loc 1 53 3 view .LVU15
  84              	.LBB4:
  85              		.loc 1 53 3 view .LVU16
  86              		.loc 1 53 3 view .LVU17
  87 0038 5A69     		ldr	r2, [r3, #20]
  88 003a 42F40032 		orr	r2, r2, #131072
  89 003e 5A61     		str	r2, [r3, #20]
  90              		.loc 1 53 3 view .LVU18
  91 0040 5A69     		ldr	r2, [r3, #20]
  92 0042 02F40032 		and	r2, r2, #131072
  93 0046 0392     		str	r2, [sp, #12]
  94              		.loc 1 53 3 view .LVU19
  95 0048 039A     		ldr	r2, [sp, #12]
  96              	.LBE4:
  97              		.loc 1 53 3 view .LVU20
  54:Core/Src/gpio.c ****   __HAL_RCC_GPIOB_CLK_ENABLE();
  98              		.loc 1 54 3 view .LVU21
  99              	.LBB5:
 100              		.loc 1 54 3 view .LVU22
 101              		.loc 1 54 3 view .LVU23
 102 004a 5A69     		ldr	r2, [r3, #20]
 103 004c 42F48022 		orr	r2, r2, #262144
 104 0050 5A61     		str	r2, [r3, #20]
 105              		.loc 1 54 3 view .LVU24
 106 0052 5B69     		ldr	r3, [r3, #20]
 107 0054 03F48023 		and	r3, r3, #262144
 108 0058 0493     		str	r3, [sp, #16]
 109              		.loc 1 54 3 view .LVU25
 110 005a 049B     		ldr	r3, [sp, #16]
 111              	.LBE5:
 112              		.loc 1 54 3 view .LVU26
  55:Core/Src/gpio.c **** 
  56:Core/Src/gpio.c ****   /*Configure GPIO pin Output Level */
  57:Core/Src/gpio.c ****   HAL_GPIO_WritePin(PLL_LE_GPIO_Port, PLL_LE_Pin, GPIO_PIN_RESET);
 113              		.loc 1 57 3 view .LVU27
 114 005c 2246     		mov	r2, r4
 115 005e 1021     		movs	r1, #16
ARM GAS  C:\Users\cordi\AppData\Local\Temp\ccPCLB4O.s 			page 4


 116 0060 4FF09040 		mov	r0, #1207959552
 117 0064 FFF7FEFF 		bl	HAL_GPIO_WritePin
 118              	.LVL0:
  58:Core/Src/gpio.c **** 
  59:Core/Src/gpio.c ****   /*Configure GPIO pin Output Level */
  60:Core/Src/gpio.c ****   HAL_GPIO_WritePin(GPIOB, GPS_RESETB_Pin|PLL_CE_Pin|SD_CS_Pin|LED_0_Pin
 119              		.loc 1 60 3 view .LVU28
 120 0068 4A4E     		ldr	r6, .L3+4
 121 006a 2246     		mov	r2, r4
 122 006c 4EF21F21 		movw	r1, #57887
 123 0070 3046     		mov	r0, r6
 124 0072 FFF7FEFF 		bl	HAL_GPIO_WritePin
 125              	.LVL1:
  61:Core/Src/gpio.c ****                           |LED_1_Pin|LED_2_Pin|PA_EN_Pin|EN_5P0_Pin
  62:Core/Src/gpio.c ****                           |BUZZ_LED_EN_Pin, GPIO_PIN_RESET);
  63:Core/Src/gpio.c **** 
  64:Core/Src/gpio.c ****   /*Configure GPIO pins : PC13 PC14 PC15 */
  65:Core/Src/gpio.c ****   GPIO_InitStruct.Pin = GPIO_PIN_13|GPIO_PIN_14|GPIO_PIN_15;
 126              		.loc 1 65 3 view .LVU29
 127              		.loc 1 65 23 is_stmt 0 view .LVU30
 128 0076 4FF46043 		mov	r3, #57344
 129 007a 0593     		str	r3, [sp, #20]
  66:Core/Src/gpio.c ****   GPIO_InitStruct.Mode = GPIO_MODE_ANALOG;
 130              		.loc 1 66 3 is_stmt 1 view .LVU31
 131              		.loc 1 66 24 is_stmt 0 view .LVU32
 132 007c 4FF00309 		mov	r9, #3
 133 0080 CDF81890 		str	r9, [sp, #24]
  67:Core/Src/gpio.c ****   GPIO_InitStruct.Pull = GPIO_NOPULL;
 134              		.loc 1 67 3 is_stmt 1 view .LVU33
 135              		.loc 1 67 24 is_stmt 0 view .LVU34
 136 0084 0794     		str	r4, [sp, #28]
  68:Core/Src/gpio.c ****   HAL_GPIO_Init(GPIOC, &GPIO_InitStruct);
 137              		.loc 1 68 3 is_stmt 1 view .LVU35
 138 0086 05A9     		add	r1, sp, #20
 139 0088 4348     		ldr	r0, .L3+8
 140 008a FFF7FEFF 		bl	HAL_GPIO_Init
 141              	.LVL2:
  69:Core/Src/gpio.c **** 
  70:Core/Src/gpio.c ****   /*Configure GPIO pin : PtPin */
  71:Core/Src/gpio.c ****   GPIO_InitStruct.Pin = GPS_PPS_Pin;
 142              		.loc 1 71 3 view .LVU36
 143              		.loc 1 71 23 is_stmt 0 view .LVU37
 144 008e 0125     		movs	r5, #1
 145 0090 0595     		str	r5, [sp, #20]
  72:Core/Src/gpio.c ****   GPIO_InitStruct.Mode = GPIO_MODE_IT_RISING;
 146              		.loc 1 72 3 is_stmt 1 view .LVU38
 147              		.loc 1 72 24 is_stmt 0 view .LVU39
 148 0092 4FF48818 		mov	r8, #1114112
 149 0096 CDF81880 		str	r8, [sp, #24]
  73:Core/Src/gpio.c ****   GPIO_InitStruct.Pull = GPIO_PULLDOWN;
 150              		.loc 1 73 3 is_stmt 1 view .LVU40
 151              		.loc 1 73 24 is_stmt 0 view .LVU41
 152 009a 0227     		movs	r7, #2
 153 009c 0797     		str	r7, [sp, #28]
  74:Core/Src/gpio.c ****   HAL_GPIO_Init(GPS_PPS_GPIO_Port, &GPIO_InitStruct);
 154              		.loc 1 74 3 is_stmt 1 view .LVU42
 155 009e 05A9     		add	r1, sp, #20
ARM GAS  C:\Users\cordi\AppData\Local\Temp\ccPCLB4O.s 			page 5


 156 00a0 4FF09040 		mov	r0, #1207959552
 157 00a4 FFF7FEFF 		bl	HAL_GPIO_Init
 158              	.LVL3:
  75:Core/Src/gpio.c **** 
  76:Core/Src/gpio.c ****   /*Configure GPIO pin : PtPin */
  77:Core/Src/gpio.c ****   GPIO_InitStruct.Pin = GPS_EXTINT_Pin;
 159              		.loc 1 77 3 view .LVU43
 160              		.loc 1 77 23 is_stmt 0 view .LVU44
 161 00a8 0597     		str	r7, [sp, #20]
  78:Core/Src/gpio.c ****   GPIO_InitStruct.Mode = GPIO_MODE_IT_RISING;
 162              		.loc 1 78 3 is_stmt 1 view .LVU45
 163              		.loc 1 78 24 is_stmt 0 view .LVU46
 164 00aa CDF81880 		str	r8, [sp, #24]
  79:Core/Src/gpio.c ****   GPIO_InitStruct.Pull = GPIO_NOPULL;
 165              		.loc 1 79 3 is_stmt 1 view .LVU47
 166              		.loc 1 79 24 is_stmt 0 view .LVU48
 167 00ae 0794     		str	r4, [sp, #28]
  80:Core/Src/gpio.c ****   HAL_GPIO_Init(GPS_EXTINT_GPIO_Port, &GPIO_InitStruct);
 168              		.loc 1 80 3 is_stmt 1 view .LVU49
 169 00b0 05A9     		add	r1, sp, #20
 170 00b2 4FF09040 		mov	r0, #1207959552
 171 00b6 FFF7FEFF 		bl	HAL_GPIO_Init
 172              	.LVL4:
  81:Core/Src/gpio.c **** 
  82:Core/Src/gpio.c ****   /*Configure GPIO pins : PAPin PAPin */
  83:Core/Src/gpio.c ****   GPIO_InitStruct.Pin = TSENS_INT_ALERT_Pin|TSNS_EXT_ALERT_Pin;
 173              		.loc 1 83 3 view .LVU50
 174              		.loc 1 83 23 is_stmt 0 view .LVU51
 175 00ba 0C23     		movs	r3, #12
 176 00bc 0593     		str	r3, [sp, #20]
  84:Core/Src/gpio.c ****   GPIO_InitStruct.Mode = GPIO_MODE_IT_FALLING;
 177              		.loc 1 84 3 is_stmt 1 view .LVU52
 178              		.loc 1 84 24 is_stmt 0 view .LVU53
 179 00be 4FF40413 		mov	r3, #2162688
 180 00c2 0693     		str	r3, [sp, #24]
  85:Core/Src/gpio.c ****   GPIO_InitStruct.Pull = GPIO_PULLUP;
 181              		.loc 1 85 3 is_stmt 1 view .LVU54
 182              		.loc 1 85 24 is_stmt 0 view .LVU55
 183 00c4 0795     		str	r5, [sp, #28]
  86:Core/Src/gpio.c ****   HAL_GPIO_Init(GPIOA, &GPIO_InitStruct);
 184              		.loc 1 86 3 is_stmt 1 view .LVU56
 185 00c6 05A9     		add	r1, sp, #20
 186 00c8 4FF09040 		mov	r0, #1207959552
 187 00cc FFF7FEFF 		bl	HAL_GPIO_Init
 188              	.LVL5:
  87:Core/Src/gpio.c **** 
  88:Core/Src/gpio.c ****   /*Configure GPIO pin : PtPin */
  89:Core/Src/gpio.c ****   GPIO_InitStruct.Pin = PLL_LE_Pin;
 189              		.loc 1 89 3 view .LVU57
 190              		.loc 1 89 23 is_stmt 0 view .LVU58
 191 00d0 1023     		movs	r3, #16
 192 00d2 0593     		str	r3, [sp, #20]
  90:Core/Src/gpio.c ****   GPIO_InitStruct.Mode = GPIO_MODE_OUTPUT_PP;
 193              		.loc 1 90 3 is_stmt 1 view .LVU59
 194              		.loc 1 90 24 is_stmt 0 view .LVU60
 195 00d4 0695     		str	r5, [sp, #24]
  91:Core/Src/gpio.c ****   GPIO_InitStruct.Pull = GPIO_NOPULL;
ARM GAS  C:\Users\cordi\AppData\Local\Temp\ccPCLB4O.s 			page 6


 196              		.loc 1 91 3 is_stmt 1 view .LVU61
 197              		.loc 1 91 24 is_stmt 0 view .LVU62
 198 00d6 0794     		str	r4, [sp, #28]
  92:Core/Src/gpio.c ****   GPIO_InitStruct.Speed = GPIO_SPEED_FREQ_MEDIUM;
 199              		.loc 1 92 3 is_stmt 1 view .LVU63
 200              		.loc 1 92 25 is_stmt 0 view .LVU64
 201 00d8 0895     		str	r5, [sp, #32]
  93:Core/Src/gpio.c ****   HAL_GPIO_Init(PLL_LE_GPIO_Port, &GPIO_InitStruct);
 202              		.loc 1 93 3 is_stmt 1 view .LVU65
 203 00da 05A9     		add	r1, sp, #20
 204 00dc 4FF09040 		mov	r0, #1207959552
 205 00e0 FFF7FEFF 		bl	HAL_GPIO_Init
 206              	.LVL6:
  94:Core/Src/gpio.c **** 
  95:Core/Src/gpio.c ****   /*Configure GPIO pins : PBPin PBPin PBPin PBPin
  96:Core/Src/gpio.c ****                            PBPin PBPin PBPin PBPin
  97:Core/Src/gpio.c ****                            PBPin */
  98:Core/Src/gpio.c ****   GPIO_InitStruct.Pin = GPS_RESETB_Pin|PLL_CE_Pin|SD_CS_Pin|LED_0_Pin
 207              		.loc 1 98 3 view .LVU66
 208              		.loc 1 98 23 is_stmt 0 view .LVU67
 209 00e4 4EF21F23 		movw	r3, #57887
 210 00e8 0593     		str	r3, [sp, #20]
  99:Core/Src/gpio.c ****                           |LED_1_Pin|LED_2_Pin|PA_EN_Pin|EN_5P0_Pin
 100:Core/Src/gpio.c ****                           |BUZZ_LED_EN_Pin;
 101:Core/Src/gpio.c ****   GPIO_InitStruct.Mode = GPIO_MODE_OUTPUT_PP;
 211              		.loc 1 101 3 is_stmt 1 view .LVU68
 212              		.loc 1 101 24 is_stmt 0 view .LVU69
 213 00ea 0695     		str	r5, [sp, #24]
 102:Core/Src/gpio.c ****   GPIO_InitStruct.Pull = GPIO_NOPULL;
 214              		.loc 1 102 3 is_stmt 1 view .LVU70
 215              		.loc 1 102 24 is_stmt 0 view .LVU71
 216 00ec 0794     		str	r4, [sp, #28]
 103:Core/Src/gpio.c ****   GPIO_InitStruct.Speed = GPIO_SPEED_FREQ_LOW;
 217              		.loc 1 103 3 is_stmt 1 view .LVU72
 218              		.loc 1 103 25 is_stmt 0 view .LVU73
 219 00ee 0894     		str	r4, [sp, #32]
 104:Core/Src/gpio.c ****   HAL_GPIO_Init(GPIOB, &GPIO_InitStruct);
 220              		.loc 1 104 3 is_stmt 1 view .LVU74
 221 00f0 05A9     		add	r1, sp, #20
 222 00f2 3046     		mov	r0, r6
 223 00f4 FFF7FEFF 		bl	HAL_GPIO_Init
 224              	.LVL7:
 105:Core/Src/gpio.c **** 
 106:Core/Src/gpio.c ****   /*Configure GPIO pin : PA8 */
 107:Core/Src/gpio.c ****   GPIO_InitStruct.Pin = GPIO_PIN_8;
 225              		.loc 1 107 3 view .LVU75
 226              		.loc 1 107 23 is_stmt 0 view .LVU76
 227 00f8 4FF48078 		mov	r8, #256
 228 00fc CDF81480 		str	r8, [sp, #20]
 108:Core/Src/gpio.c ****   GPIO_InitStruct.Mode = GPIO_MODE_AF_PP;
 229              		.loc 1 108 3 is_stmt 1 view .LVU77
 230              		.loc 1 108 24 is_stmt 0 view .LVU78
 231 0100 0697     		str	r7, [sp, #24]
 109:Core/Src/gpio.c ****   GPIO_InitStruct.Pull = GPIO_NOPULL;
 232              		.loc 1 109 3 is_stmt 1 view .LVU79
 233              		.loc 1 109 24 is_stmt 0 view .LVU80
 234 0102 0794     		str	r4, [sp, #28]
ARM GAS  C:\Users\cordi\AppData\Local\Temp\ccPCLB4O.s 			page 7


 110:Core/Src/gpio.c ****   GPIO_InitStruct.Speed = GPIO_SPEED_FREQ_LOW;
 235              		.loc 1 110 3 is_stmt 1 view .LVU81
 236              		.loc 1 110 25 is_stmt 0 view .LVU82
 237 0104 0894     		str	r4, [sp, #32]
 111:Core/Src/gpio.c ****   GPIO_InitStruct.Alternate = GPIO_AF0_MCO;
 238              		.loc 1 111 3 is_stmt 1 view .LVU83
 239              		.loc 1 111 29 is_stmt 0 view .LVU84
 240 0106 0994     		str	r4, [sp, #36]
 112:Core/Src/gpio.c ****   HAL_GPIO_Init(GPIOA, &GPIO_InitStruct);
 241              		.loc 1 112 3 is_stmt 1 view .LVU85
 242 0108 05A9     		add	r1, sp, #20
 243 010a 4FF09040 		mov	r0, #1207959552
 244 010e FFF7FEFF 		bl	HAL_GPIO_Init
 245              	.LVL8:
 113:Core/Src/gpio.c **** 
 114:Core/Src/gpio.c ****   /*Configure GPIO pins : PA11 PA12 PA15 */
 115:Core/Src/gpio.c ****   GPIO_InitStruct.Pin = GPIO_PIN_11|GPIO_PIN_12|GPIO_PIN_15;
 246              		.loc 1 115 3 view .LVU86
 247              		.loc 1 115 23 is_stmt 0 view .LVU87
 248 0112 4FF41843 		mov	r3, #38912
 249 0116 0593     		str	r3, [sp, #20]
 116:Core/Src/gpio.c ****   GPIO_InitStruct.Mode = GPIO_MODE_ANALOG;
 250              		.loc 1 116 3 is_stmt 1 view .LVU88
 251              		.loc 1 116 24 is_stmt 0 view .LVU89
 252 0118 CDF81890 		str	r9, [sp, #24]
 117:Core/Src/gpio.c ****   GPIO_InitStruct.Pull = GPIO_NOPULL;
 253              		.loc 1 117 3 is_stmt 1 view .LVU90
 254              		.loc 1 117 24 is_stmt 0 view .LVU91
 255 011c 0794     		str	r4, [sp, #28]
 118:Core/Src/gpio.c ****   HAL_GPIO_Init(GPIOA, &GPIO_InitStruct);
 256              		.loc 1 118 3 is_stmt 1 view .LVU92
 257 011e 05A9     		add	r1, sp, #20
 258 0120 4FF09040 		mov	r0, #1207959552
 259 0124 FFF7FEFF 		bl	HAL_GPIO_Init
 260              	.LVL9:
 119:Core/Src/gpio.c **** 
 120:Core/Src/gpio.c ****   /*Configure GPIO pin : PtPin */
 121:Core/Src/gpio.c ****   GPIO_InitStruct.Pin = PLL_MUXOUT_Pin;
 261              		.loc 1 121 3 view .LVU93
 262              		.loc 1 121 23 is_stmt 0 view .LVU94
 263 0128 2023     		movs	r3, #32
 264 012a 0593     		str	r3, [sp, #20]
 122:Core/Src/gpio.c ****   GPIO_InitStruct.Mode = GPIO_MODE_INPUT;
 265              		.loc 1 122 3 is_stmt 1 view .LVU95
 266              		.loc 1 122 24 is_stmt 0 view .LVU96
 267 012c 0694     		str	r4, [sp, #24]
 123:Core/Src/gpio.c ****   GPIO_InitStruct.Pull = GPIO_PULLDOWN;
 268              		.loc 1 123 3 is_stmt 1 view .LVU97
 269              		.loc 1 123 24 is_stmt 0 view .LVU98
 270 012e 0797     		str	r7, [sp, #28]
 124:Core/Src/gpio.c ****   HAL_GPIO_Init(PLL_MUXOUT_GPIO_Port, &GPIO_InitStruct);
 271              		.loc 1 124 3 is_stmt 1 view .LVU99
 272 0130 05A9     		add	r1, sp, #20
 273 0132 3046     		mov	r0, r6
 274 0134 FFF7FEFF 		bl	HAL_GPIO_Init
 275              	.LVL10:
 125:Core/Src/gpio.c **** 
ARM GAS  C:\Users\cordi\AppData\Local\Temp\ccPCLB4O.s 			page 8


 126:Core/Src/gpio.c ****   /*Configure GPIO pin : PtPin */
 127:Core/Src/gpio.c ****   GPIO_InitStruct.Pin = SD_DET_Pin;
 276              		.loc 1 127 3 view .LVU100
 277              		.loc 1 127 23 is_stmt 0 view .LVU101
 278 0138 CDF81480 		str	r8, [sp, #20]
 128:Core/Src/gpio.c ****   GPIO_InitStruct.Mode = GPIO_MODE_INPUT;
 279              		.loc 1 128 3 is_stmt 1 view .LVU102
 280              		.loc 1 128 24 is_stmt 0 view .LVU103
 281 013c 0694     		str	r4, [sp, #24]
 129:Core/Src/gpio.c ****   GPIO_InitStruct.Pull = GPIO_PULLUP;
 282              		.loc 1 129 3 is_stmt 1 view .LVU104
 283              		.loc 1 129 24 is_stmt 0 view .LVU105
 284 013e 0795     		str	r5, [sp, #28]
 130:Core/Src/gpio.c ****   HAL_GPIO_Init(SD_DET_GPIO_Port, &GPIO_InitStruct);
 285              		.loc 1 130 3 is_stmt 1 view .LVU106
 286 0140 05A9     		add	r1, sp, #20
 287 0142 3046     		mov	r0, r6
 288 0144 FFF7FEFF 		bl	HAL_GPIO_Init
 289              	.LVL11:
 131:Core/Src/gpio.c **** 
 132:Core/Src/gpio.c ****   /* EXTI interrupt init*/
 133:Core/Src/gpio.c ****   HAL_NVIC_SetPriority(EXTI0_IRQn, 0, 0);
 290              		.loc 1 133 3 view .LVU107
 291 0148 2246     		mov	r2, r4
 292 014a 2146     		mov	r1, r4
 293 014c 0620     		movs	r0, #6
 294 014e FFF7FEFF 		bl	HAL_NVIC_SetPriority
 295              	.LVL12:
 134:Core/Src/gpio.c ****   HAL_NVIC_EnableIRQ(EXTI0_IRQn);
 296              		.loc 1 134 3 view .LVU108
 297 0152 0620     		movs	r0, #6
 298 0154 FFF7FEFF 		bl	HAL_NVIC_EnableIRQ
 299              	.LVL13:
 135:Core/Src/gpio.c **** 
 136:Core/Src/gpio.c ****   HAL_NVIC_SetPriority(EXTI1_IRQn, 0, 0);
 300              		.loc 1 136 3 view .LVU109
 301 0158 2246     		mov	r2, r4
 302 015a 2146     		mov	r1, r4
 303 015c 0720     		movs	r0, #7
 304 015e FFF7FEFF 		bl	HAL_NVIC_SetPriority
 305              	.LVL14:
 137:Core/Src/gpio.c ****   HAL_NVIC_EnableIRQ(EXTI1_IRQn);
 306              		.loc 1 137 3 view .LVU110
 307 0162 0720     		movs	r0, #7
 308 0164 FFF7FEFF 		bl	HAL_NVIC_EnableIRQ
 309              	.LVL15:
 138:Core/Src/gpio.c **** 
 139:Core/Src/gpio.c ****   HAL_NVIC_SetPriority(EXTI2_TSC_IRQn, 0, 0);
 310              		.loc 1 139 3 view .LVU111
 311 0168 2246     		mov	r2, r4
 312 016a 2146     		mov	r1, r4
 313 016c 0820     		movs	r0, #8
 314 016e FFF7FEFF 		bl	HAL_NVIC_SetPriority
 315              	.LVL16:
 140:Core/Src/gpio.c ****   HAL_NVIC_EnableIRQ(EXTI2_TSC_IRQn);
 316              		.loc 1 140 3 view .LVU112
 317 0172 0820     		movs	r0, #8
ARM GAS  C:\Users\cordi\AppData\Local\Temp\ccPCLB4O.s 			page 9


 318 0174 FFF7FEFF 		bl	HAL_NVIC_EnableIRQ
 319              	.LVL17:
 141:Core/Src/gpio.c **** 
 142:Core/Src/gpio.c ****   HAL_NVIC_SetPriority(EXTI3_IRQn, 0, 0);
 320              		.loc 1 142 3 view .LVU113
 321 0178 2246     		mov	r2, r4
 322 017a 2146     		mov	r1, r4
 323 017c 0920     		movs	r0, #9
 324 017e FFF7FEFF 		bl	HAL_NVIC_SetPriority
 325              	.LVL18:
 143:Core/Src/gpio.c ****   HAL_NVIC_EnableIRQ(EXTI3_IRQn);
 326              		.loc 1 143 3 view .LVU114
 327 0182 0920     		movs	r0, #9
 328 0184 FFF7FEFF 		bl	HAL_NVIC_EnableIRQ
 329              	.LVL19:
 144:Core/Src/gpio.c **** 
 145:Core/Src/gpio.c **** }
 330              		.loc 1 145 1 is_stmt 0 view .LVU115
 331 0188 0BB0     		add	sp, sp, #44
 332              		.cfi_def_cfa_offset 28
 333              		@ sp needed
 334 018a BDE8F083 		pop	{r4, r5, r6, r7, r8, r9, pc}
 335              	.L4:
 336 018e 00BF     		.align	2
 337              	.L3:
 338 0190 00100240 		.word	1073876992
 339 0194 00040048 		.word	1207960576
 340 0198 00080048 		.word	1207961600
 341              		.cfi_endproc
 342              	.LFE123:
 344              		.text
 345              	.Letext0:
 346              		.file 2 "Drivers/CMSIS/Device/ST/STM32F3xx/Include/stm32f334x8.h"
 347              		.file 3 "c:\\program files (x86)\\arm gnu toolchain arm-none-eabi\\12.2 mpacbti-bet1\\arm-none-eab
 348              		.file 4 "c:\\program files (x86)\\arm gnu toolchain arm-none-eabi\\12.2 mpacbti-bet1\\arm-none-eab
 349              		.file 5 "Drivers/STM32F3xx_HAL_Driver/Inc/stm32f3xx_hal_gpio.h"
 350              		.file 6 "Drivers/STM32F3xx_HAL_Driver/Inc/stm32f3xx_hal_cortex.h"
ARM GAS  C:\Users\cordi\AppData\Local\Temp\ccPCLB4O.s 			page 10

