ARM GAS  C:\Users\cordi\AppData\Local\Temp\ccTuEr4W.s 			page 1


   1              		.cpu cortex-m4
   2              		.arch armv7e-m
   3              		.fpu fpv4-sp-d16
   4              		.eabi_attribute 27, 1
   5              		.eabi_attribute 28, 1
   6              		.eabi_attribute 20, 1
   7              		.eabi_attribute 21, 1
   8              		.eabi_attribute 23, 3
   9              		.eabi_attribute 24, 1
  10              		.eabi_attribute 25, 1
  11              		.eabi_attribute 26, 1
  12              		.eabi_attribute 30, 1
  13              		.eabi_attribute 34, 1
  14              		.eabi_attribute 18, 4
  15              		.file	"hrtim.c"
  16              		.text
  17              	.Ltext0:
  18              		.cfi_sections	.debug_frame
  19              		.file 1 "Core/Src/hrtim.c"
  20              		.section	.text.HAL_HRTIM_MspInit,"ax",%progbits
  21              		.align	1
  22              		.global	HAL_HRTIM_MspInit
  23              		.syntax unified
  24              		.thumb
  25              		.thumb_func
  27              	HAL_HRTIM_MspInit:
  28              	.LVL0:
  29              	.LFB124:
   1:Core/Src/hrtim.c **** /* USER CODE BEGIN Header */
   2:Core/Src/hrtim.c **** /**
   3:Core/Src/hrtim.c ****   ******************************************************************************
   4:Core/Src/hrtim.c ****   * @file    hrtim.c
   5:Core/Src/hrtim.c ****   * @brief   This file provides code for the configuration
   6:Core/Src/hrtim.c ****   *          of the HRTIM instances.
   7:Core/Src/hrtim.c ****   ******************************************************************************
   8:Core/Src/hrtim.c ****   * @attention
   9:Core/Src/hrtim.c ****   *
  10:Core/Src/hrtim.c ****   * Copyright (c) 2023 STMicroelectronics.
  11:Core/Src/hrtim.c ****   * All rights reserved.
  12:Core/Src/hrtim.c ****   *
  13:Core/Src/hrtim.c ****   * This software is licensed under terms that can be found in the LICENSE file
  14:Core/Src/hrtim.c ****   * in the root directory of this software component.
  15:Core/Src/hrtim.c ****   * If no LICENSE file comes with this software, it is provided AS-IS.
  16:Core/Src/hrtim.c ****   *
  17:Core/Src/hrtim.c ****   ******************************************************************************
  18:Core/Src/hrtim.c ****   */
  19:Core/Src/hrtim.c **** /* USER CODE END Header */
  20:Core/Src/hrtim.c **** /* Includes ------------------------------------------------------------------*/
  21:Core/Src/hrtim.c **** #include "hrtim.h"
  22:Core/Src/hrtim.c **** 
  23:Core/Src/hrtim.c **** /* USER CODE BEGIN 0 */
  24:Core/Src/hrtim.c **** 
  25:Core/Src/hrtim.c **** /* USER CODE END 0 */
  26:Core/Src/hrtim.c **** 
  27:Core/Src/hrtim.c **** HRTIM_HandleTypeDef hhrtim1;
  28:Core/Src/hrtim.c **** 
  29:Core/Src/hrtim.c **** /* HRTIM1 init function */
ARM GAS  C:\Users\cordi\AppData\Local\Temp\ccTuEr4W.s 			page 2


  30:Core/Src/hrtim.c **** void MX_HRTIM1_Init(void)
  31:Core/Src/hrtim.c **** {
  32:Core/Src/hrtim.c **** 
  33:Core/Src/hrtim.c ****   /* USER CODE BEGIN HRTIM1_Init 0 */
  34:Core/Src/hrtim.c **** 
  35:Core/Src/hrtim.c ****   /* USER CODE END HRTIM1_Init 0 */
  36:Core/Src/hrtim.c **** 
  37:Core/Src/hrtim.c ****   HRTIM_TimeBaseCfgTypeDef pTimeBaseCfg = {0};
  38:Core/Src/hrtim.c ****   HRTIM_TimerCfgTypeDef pTimerCfg = {0};
  39:Core/Src/hrtim.c ****   HRTIM_CompareCfgTypeDef pCompareCfg = {0};
  40:Core/Src/hrtim.c ****   HRTIM_OutputCfgTypeDef pOutputCfg = {0};
  41:Core/Src/hrtim.c **** 
  42:Core/Src/hrtim.c ****   /* USER CODE BEGIN HRTIM1_Init 1 */
  43:Core/Src/hrtim.c **** 
  44:Core/Src/hrtim.c ****   /* USER CODE END HRTIM1_Init 1 */
  45:Core/Src/hrtim.c ****   hhrtim1.Instance = HRTIM1;
  46:Core/Src/hrtim.c ****   hhrtim1.Init.HRTIMInterruptResquests = HRTIM_IT_NONE;
  47:Core/Src/hrtim.c ****   hhrtim1.Init.SyncOptions = HRTIM_SYNCOPTION_NONE;
  48:Core/Src/hrtim.c ****   if (HAL_HRTIM_Init(&hhrtim1) != HAL_OK)
  49:Core/Src/hrtim.c ****   {
  50:Core/Src/hrtim.c ****     Error_Handler();
  51:Core/Src/hrtim.c ****   }
  52:Core/Src/hrtim.c ****   if (HAL_HRTIM_DLLCalibrationStart(&hhrtim1, HRTIM_CALIBRATIONRATE_7300) != HAL_OK)
  53:Core/Src/hrtim.c ****   {
  54:Core/Src/hrtim.c ****     Error_Handler();
  55:Core/Src/hrtim.c ****   }
  56:Core/Src/hrtim.c ****   if (HAL_HRTIM_PollForDLLCalibration(&hhrtim1, 10) != HAL_OK)
  57:Core/Src/hrtim.c ****   {
  58:Core/Src/hrtim.c ****     Error_Handler();
  59:Core/Src/hrtim.c ****   }
  60:Core/Src/hrtim.c ****   pTimeBaseCfg.Period = 1444;
  61:Core/Src/hrtim.c ****   pTimeBaseCfg.RepetitionCounter = 0x00;
  62:Core/Src/hrtim.c ****   pTimeBaseCfg.PrescalerRatio = HRTIM_PRESCALERRATIO_MUL32;
  63:Core/Src/hrtim.c ****   pTimeBaseCfg.Mode = HRTIM_MODE_CONTINUOUS;
  64:Core/Src/hrtim.c ****   if (HAL_HRTIM_TimeBaseConfig(&hhrtim1, HRTIM_TIMERINDEX_TIMER_C, &pTimeBaseCfg) != HAL_OK)
  65:Core/Src/hrtim.c ****   {
  66:Core/Src/hrtim.c ****     Error_Handler();
  67:Core/Src/hrtim.c ****   }
  68:Core/Src/hrtim.c ****   pTimerCfg.InterruptRequests = HRTIM_TIM_IT_NONE;
  69:Core/Src/hrtim.c ****   pTimerCfg.DMARequests = HRTIM_TIM_DMA_NONE;
  70:Core/Src/hrtim.c ****   pTimerCfg.DMASrcAddress = 0x0000;
  71:Core/Src/hrtim.c ****   pTimerCfg.DMADstAddress = 0x0000;
  72:Core/Src/hrtim.c ****   pTimerCfg.DMASize = 0x1;
  73:Core/Src/hrtim.c ****   pTimerCfg.HalfModeEnable = HRTIM_HALFMODE_DISABLED;
  74:Core/Src/hrtim.c ****   pTimerCfg.StartOnSync = HRTIM_SYNCSTART_DISABLED;
  75:Core/Src/hrtim.c ****   pTimerCfg.ResetOnSync = HRTIM_SYNCRESET_DISABLED;
  76:Core/Src/hrtim.c ****   pTimerCfg.DACSynchro = HRTIM_DACSYNC_NONE;
  77:Core/Src/hrtim.c ****   pTimerCfg.PreloadEnable = HRTIM_PRELOAD_DISABLED;
  78:Core/Src/hrtim.c ****   pTimerCfg.UpdateGating = HRTIM_UPDATEGATING_INDEPENDENT;
  79:Core/Src/hrtim.c ****   pTimerCfg.BurstMode = HRTIM_TIMERBURSTMODE_MAINTAINCLOCK;
  80:Core/Src/hrtim.c ****   pTimerCfg.RepetitionUpdate = HRTIM_UPDATEONREPETITION_DISABLED;
  81:Core/Src/hrtim.c ****   pTimerCfg.PushPull = HRTIM_TIMPUSHPULLMODE_DISABLED;
  82:Core/Src/hrtim.c ****   pTimerCfg.FaultEnable = HRTIM_TIMFAULTENABLE_NONE;
  83:Core/Src/hrtim.c ****   pTimerCfg.FaultLock = HRTIM_TIMFAULTLOCK_READWRITE;
  84:Core/Src/hrtim.c ****   pTimerCfg.DeadTimeInsertion = HRTIM_TIMDEADTIMEINSERTION_DISABLED;
  85:Core/Src/hrtim.c ****   pTimerCfg.DelayedProtectionMode = HRTIM_TIMER_A_B_C_DELAYEDPROTECTION_DISABLED;
  86:Core/Src/hrtim.c ****   pTimerCfg.UpdateTrigger = HRTIM_TIMUPDATETRIGGER_NONE;
ARM GAS  C:\Users\cordi\AppData\Local\Temp\ccTuEr4W.s 			page 3


  87:Core/Src/hrtim.c ****   pTimerCfg.ResetTrigger = HRTIM_TIMRESETTRIGGER_NONE;
  88:Core/Src/hrtim.c ****   pTimerCfg.ResetUpdate = HRTIM_TIMUPDATEONRESET_DISABLED;
  89:Core/Src/hrtim.c ****   if (HAL_HRTIM_WaveformTimerConfig(&hhrtim1, HRTIM_TIMERINDEX_TIMER_C, &pTimerCfg) != HAL_OK)
  90:Core/Src/hrtim.c ****   {
  91:Core/Src/hrtim.c ****     Error_Handler();
  92:Core/Src/hrtim.c ****   }
  93:Core/Src/hrtim.c ****   pCompareCfg.CompareValue = 722;
  94:Core/Src/hrtim.c ****   if (HAL_HRTIM_WaveformCompareConfig(&hhrtim1, HRTIM_TIMERINDEX_TIMER_C, HRTIM_COMPAREUNIT_1, &pCo
  95:Core/Src/hrtim.c ****   {
  96:Core/Src/hrtim.c ****     Error_Handler();
  97:Core/Src/hrtim.c ****   }
  98:Core/Src/hrtim.c ****   pOutputCfg.Polarity = HRTIM_OUTPUTPOLARITY_HIGH;
  99:Core/Src/hrtim.c ****   pOutputCfg.SetSource = HRTIM_OUTPUTSET_TIMPER;
 100:Core/Src/hrtim.c ****   pOutputCfg.ResetSource = HRTIM_OUTPUTRESET_TIMCMP1;
 101:Core/Src/hrtim.c ****   pOutputCfg.IdleMode = HRTIM_OUTPUTIDLEMODE_NONE;
 102:Core/Src/hrtim.c ****   pOutputCfg.IdleLevel = HRTIM_OUTPUTIDLELEVEL_INACTIVE;
 103:Core/Src/hrtim.c ****   pOutputCfg.FaultLevel = HRTIM_OUTPUTFAULTLEVEL_NONE;
 104:Core/Src/hrtim.c ****   pOutputCfg.ChopperModeEnable = HRTIM_OUTPUTCHOPPERMODE_DISABLED;
 105:Core/Src/hrtim.c ****   pOutputCfg.BurstModeEntryDelayed = HRTIM_OUTPUTBURSTMODEENTRY_REGULAR;
 106:Core/Src/hrtim.c ****   if (HAL_HRTIM_WaveformOutputConfig(&hhrtim1, HRTIM_TIMERINDEX_TIMER_C, HRTIM_OUTPUT_TC1, &pOutput
 107:Core/Src/hrtim.c ****   {
 108:Core/Src/hrtim.c ****     Error_Handler();
 109:Core/Src/hrtim.c ****   }
 110:Core/Src/hrtim.c ****   /* USER CODE BEGIN HRTIM1_Init 2 */
 111:Core/Src/hrtim.c **** 
 112:Core/Src/hrtim.c ****   /* USER CODE END HRTIM1_Init 2 */
 113:Core/Src/hrtim.c ****   HAL_HRTIM_MspPostInit(&hhrtim1);
 114:Core/Src/hrtim.c **** 
 115:Core/Src/hrtim.c **** }
 116:Core/Src/hrtim.c **** 
 117:Core/Src/hrtim.c **** void HAL_HRTIM_MspInit(HRTIM_HandleTypeDef* hrtimHandle)
 118:Core/Src/hrtim.c **** {
  30              		.loc 1 118 1 view -0
  31              		.cfi_startproc
  32              		@ args = 0, pretend = 0, frame = 8
  33              		@ frame_needed = 0, uses_anonymous_args = 0
  34              		@ link register save eliminated.
 119:Core/Src/hrtim.c **** 
 120:Core/Src/hrtim.c ****   if(hrtimHandle->Instance==HRTIM1)
  35              		.loc 1 120 3 view .LVU1
  36              		.loc 1 120 17 is_stmt 0 view .LVU2
  37 0000 0268     		ldr	r2, [r0]
  38              		.loc 1 120 5 view .LVU3
  39 0002 094B     		ldr	r3, .L8
  40 0004 9A42     		cmp	r2, r3
  41 0006 00D0     		beq	.L7
  42 0008 7047     		bx	lr
  43              	.L7:
 118:Core/Src/hrtim.c **** 
  44              		.loc 1 118 1 view .LVU4
  45 000a 82B0     		sub	sp, sp, #8
  46              		.cfi_def_cfa_offset 8
 121:Core/Src/hrtim.c ****   {
 122:Core/Src/hrtim.c ****   /* USER CODE BEGIN HRTIM1_MspInit 0 */
 123:Core/Src/hrtim.c **** 
 124:Core/Src/hrtim.c ****   /* USER CODE END HRTIM1_MspInit 0 */
 125:Core/Src/hrtim.c ****     /* HRTIM1 clock enable */
ARM GAS  C:\Users\cordi\AppData\Local\Temp\ccTuEr4W.s 			page 4


 126:Core/Src/hrtim.c ****     __HAL_RCC_HRTIM1_CLK_ENABLE();
  47              		.loc 1 126 5 is_stmt 1 view .LVU5
  48              	.LBB2:
  49              		.loc 1 126 5 view .LVU6
  50              		.loc 1 126 5 view .LVU7
  51 000c 03F51C43 		add	r3, r3, #39936
  52 0010 9A69     		ldr	r2, [r3, #24]
  53 0012 42F00052 		orr	r2, r2, #536870912
  54 0016 9A61     		str	r2, [r3, #24]
  55              		.loc 1 126 5 view .LVU8
  56 0018 9B69     		ldr	r3, [r3, #24]
  57 001a 03F00053 		and	r3, r3, #536870912
  58 001e 0193     		str	r3, [sp, #4]
  59              		.loc 1 126 5 view .LVU9
  60 0020 019B     		ldr	r3, [sp, #4]
  61              	.LBE2:
  62              		.loc 1 126 5 view .LVU10
 127:Core/Src/hrtim.c ****   /* USER CODE BEGIN HRTIM1_MspInit 1 */
 128:Core/Src/hrtim.c **** 
 129:Core/Src/hrtim.c ****   /* USER CODE END HRTIM1_MspInit 1 */
 130:Core/Src/hrtim.c ****   }
 131:Core/Src/hrtim.c **** }
  63              		.loc 1 131 1 is_stmt 0 view .LVU11
  64 0022 02B0     		add	sp, sp, #8
  65              		.cfi_def_cfa_offset 0
  66              		@ sp needed
  67 0024 7047     		bx	lr
  68              	.L9:
  69 0026 00BF     		.align	2
  70              	.L8:
  71 0028 00740140 		.word	1073837056
  72              		.cfi_endproc
  73              	.LFE124:
  75              		.section	.text.HAL_HRTIM_MspPostInit,"ax",%progbits
  76              		.align	1
  77              		.global	HAL_HRTIM_MspPostInit
  78              		.syntax unified
  79              		.thumb
  80              		.thumb_func
  82              	HAL_HRTIM_MspPostInit:
  83              	.LVL1:
  84              	.LFB125:
 132:Core/Src/hrtim.c **** 
 133:Core/Src/hrtim.c **** void HAL_HRTIM_MspPostInit(HRTIM_HandleTypeDef* hrtimHandle)
 134:Core/Src/hrtim.c **** {
  85              		.loc 1 134 1 is_stmt 1 view -0
  86              		.cfi_startproc
  87              		@ args = 0, pretend = 0, frame = 24
  88              		@ frame_needed = 0, uses_anonymous_args = 0
  89              		.loc 1 134 1 is_stmt 0 view .LVU13
  90 0000 00B5     		push	{lr}
  91              		.cfi_def_cfa_offset 4
  92              		.cfi_offset 14, -4
  93 0002 87B0     		sub	sp, sp, #28
  94              		.cfi_def_cfa_offset 32
 135:Core/Src/hrtim.c **** 
 136:Core/Src/hrtim.c ****   GPIO_InitTypeDef GPIO_InitStruct = {0};
ARM GAS  C:\Users\cordi\AppData\Local\Temp\ccTuEr4W.s 			page 5


  95              		.loc 1 136 3 is_stmt 1 view .LVU14
  96              		.loc 1 136 20 is_stmt 0 view .LVU15
  97 0004 0023     		movs	r3, #0
  98 0006 0193     		str	r3, [sp, #4]
  99 0008 0293     		str	r3, [sp, #8]
 100 000a 0393     		str	r3, [sp, #12]
 101 000c 0493     		str	r3, [sp, #16]
 102 000e 0593     		str	r3, [sp, #20]
 137:Core/Src/hrtim.c ****   if(hrtimHandle->Instance==HRTIM1)
 103              		.loc 1 137 3 is_stmt 1 view .LVU16
 104              		.loc 1 137 17 is_stmt 0 view .LVU17
 105 0010 0268     		ldr	r2, [r0]
 106              		.loc 1 137 5 view .LVU18
 107 0012 0F4B     		ldr	r3, .L14
 108 0014 9A42     		cmp	r2, r3
 109 0016 02D0     		beq	.L13
 110              	.LVL2:
 111              	.L10:
 138:Core/Src/hrtim.c ****   {
 139:Core/Src/hrtim.c ****   /* USER CODE BEGIN HRTIM1_MspPostInit 0 */
 140:Core/Src/hrtim.c **** 
 141:Core/Src/hrtim.c ****   /* USER CODE END HRTIM1_MspPostInit 0 */
 142:Core/Src/hrtim.c **** 
 143:Core/Src/hrtim.c ****     __HAL_RCC_GPIOB_CLK_ENABLE();
 144:Core/Src/hrtim.c ****     /**HRTIM1 GPIO Configuration
 145:Core/Src/hrtim.c ****     PB12     ------> HRTIM1_CHC1
 146:Core/Src/hrtim.c ****     */
 147:Core/Src/hrtim.c ****     GPIO_InitStruct.Pin = GPIO_PIN_12;
 148:Core/Src/hrtim.c ****     GPIO_InitStruct.Mode = GPIO_MODE_AF_PP;
 149:Core/Src/hrtim.c ****     GPIO_InitStruct.Pull = GPIO_NOPULL;
 150:Core/Src/hrtim.c ****     GPIO_InitStruct.Speed = GPIO_SPEED_FREQ_HIGH;
 151:Core/Src/hrtim.c ****     GPIO_InitStruct.Alternate = GPIO_AF13_HRTIM1;
 152:Core/Src/hrtim.c ****     HAL_GPIO_Init(GPIOB, &GPIO_InitStruct);
 153:Core/Src/hrtim.c **** 
 154:Core/Src/hrtim.c ****   /* USER CODE BEGIN HRTIM1_MspPostInit 1 */
 155:Core/Src/hrtim.c **** 
 156:Core/Src/hrtim.c ****   /* USER CODE END HRTIM1_MspPostInit 1 */
 157:Core/Src/hrtim.c ****   }
 158:Core/Src/hrtim.c **** 
 159:Core/Src/hrtim.c **** }
 112              		.loc 1 159 1 view .LVU19
 113 0018 07B0     		add	sp, sp, #28
 114              		.cfi_remember_state
 115              		.cfi_def_cfa_offset 4
 116              		@ sp needed
 117 001a 5DF804FB 		ldr	pc, [sp], #4
 118              	.LVL3:
 119              	.L13:
 120              		.cfi_restore_state
 143:Core/Src/hrtim.c ****     /**HRTIM1 GPIO Configuration
 121              		.loc 1 143 5 is_stmt 1 view .LVU20
 122              	.LBB3:
 143:Core/Src/hrtim.c ****     /**HRTIM1 GPIO Configuration
 123              		.loc 1 143 5 view .LVU21
 143:Core/Src/hrtim.c ****     /**HRTIM1 GPIO Configuration
 124              		.loc 1 143 5 view .LVU22
 125 001e 03F51C43 		add	r3, r3, #39936
ARM GAS  C:\Users\cordi\AppData\Local\Temp\ccTuEr4W.s 			page 6


 126 0022 5A69     		ldr	r2, [r3, #20]
 127 0024 42F48022 		orr	r2, r2, #262144
 128 0028 5A61     		str	r2, [r3, #20]
 143:Core/Src/hrtim.c ****     /**HRTIM1 GPIO Configuration
 129              		.loc 1 143 5 view .LVU23
 130 002a 5B69     		ldr	r3, [r3, #20]
 131 002c 03F48023 		and	r3, r3, #262144
 132 0030 0093     		str	r3, [sp]
 143:Core/Src/hrtim.c ****     /**HRTIM1 GPIO Configuration
 133              		.loc 1 143 5 view .LVU24
 134 0032 009B     		ldr	r3, [sp]
 135              	.LBE3:
 143:Core/Src/hrtim.c ****     /**HRTIM1 GPIO Configuration
 136              		.loc 1 143 5 view .LVU25
 147:Core/Src/hrtim.c ****     GPIO_InitStruct.Mode = GPIO_MODE_AF_PP;
 137              		.loc 1 147 5 view .LVU26
 147:Core/Src/hrtim.c ****     GPIO_InitStruct.Mode = GPIO_MODE_AF_PP;
 138              		.loc 1 147 25 is_stmt 0 view .LVU27
 139 0034 4FF48053 		mov	r3, #4096
 140 0038 0193     		str	r3, [sp, #4]
 148:Core/Src/hrtim.c ****     GPIO_InitStruct.Pull = GPIO_NOPULL;
 141              		.loc 1 148 5 is_stmt 1 view .LVU28
 148:Core/Src/hrtim.c ****     GPIO_InitStruct.Pull = GPIO_NOPULL;
 142              		.loc 1 148 26 is_stmt 0 view .LVU29
 143 003a 0223     		movs	r3, #2
 144 003c 0293     		str	r3, [sp, #8]
 149:Core/Src/hrtim.c ****     GPIO_InitStruct.Speed = GPIO_SPEED_FREQ_HIGH;
 145              		.loc 1 149 5 is_stmt 1 view .LVU30
 150:Core/Src/hrtim.c ****     GPIO_InitStruct.Alternate = GPIO_AF13_HRTIM1;
 146              		.loc 1 150 5 view .LVU31
 150:Core/Src/hrtim.c ****     GPIO_InitStruct.Alternate = GPIO_AF13_HRTIM1;
 147              		.loc 1 150 27 is_stmt 0 view .LVU32
 148 003e 0323     		movs	r3, #3
 149 0040 0493     		str	r3, [sp, #16]
 151:Core/Src/hrtim.c ****     HAL_GPIO_Init(GPIOB, &GPIO_InitStruct);
 150              		.loc 1 151 5 is_stmt 1 view .LVU33
 151:Core/Src/hrtim.c ****     HAL_GPIO_Init(GPIOB, &GPIO_InitStruct);
 151              		.loc 1 151 31 is_stmt 0 view .LVU34
 152 0042 0D23     		movs	r3, #13
 153 0044 0593     		str	r3, [sp, #20]
 152:Core/Src/hrtim.c **** 
 154              		.loc 1 152 5 is_stmt 1 view .LVU35
 155 0046 01A9     		add	r1, sp, #4
 156 0048 0248     		ldr	r0, .L14+4
 157              	.LVL4:
 152:Core/Src/hrtim.c **** 
 158              		.loc 1 152 5 is_stmt 0 view .LVU36
 159 004a FFF7FEFF 		bl	HAL_GPIO_Init
 160              	.LVL5:
 161              		.loc 1 159 1 view .LVU37
 162 004e E3E7     		b	.L10
 163              	.L15:
 164              		.align	2
 165              	.L14:
 166 0050 00740140 		.word	1073837056
 167 0054 00040048 		.word	1207960576
 168              		.cfi_endproc
ARM GAS  C:\Users\cordi\AppData\Local\Temp\ccTuEr4W.s 			page 7


 169              	.LFE125:
 171              		.section	.text.MX_HRTIM1_Init,"ax",%progbits
 172              		.align	1
 173              		.global	MX_HRTIM1_Init
 174              		.syntax unified
 175              		.thumb
 176              		.thumb_func
 178              	MX_HRTIM1_Init:
 179              	.LFB123:
  31:Core/Src/hrtim.c **** 
 180              		.loc 1 31 1 is_stmt 1 view -0
 181              		.cfi_startproc
 182              		@ args = 0, pretend = 0, frame = 144
 183              		@ frame_needed = 0, uses_anonymous_args = 0
 184 0000 10B5     		push	{r4, lr}
 185              		.cfi_def_cfa_offset 8
 186              		.cfi_offset 4, -8
 187              		.cfi_offset 14, -4
 188 0002 A4B0     		sub	sp, sp, #144
 189              		.cfi_def_cfa_offset 152
  37:Core/Src/hrtim.c ****   HRTIM_TimerCfgTypeDef pTimerCfg = {0};
 190              		.loc 1 37 3 view .LVU39
  37:Core/Src/hrtim.c ****   HRTIM_TimerCfgTypeDef pTimerCfg = {0};
 191              		.loc 1 37 28 is_stmt 0 view .LVU40
 192 0004 0024     		movs	r4, #0
 193 0006 2094     		str	r4, [sp, #128]
 194 0008 2194     		str	r4, [sp, #132]
 195 000a 2294     		str	r4, [sp, #136]
 196 000c 2394     		str	r4, [sp, #140]
  38:Core/Src/hrtim.c ****   HRTIM_CompareCfgTypeDef pCompareCfg = {0};
 197              		.loc 1 38 3 is_stmt 1 view .LVU41
  38:Core/Src/hrtim.c ****   HRTIM_CompareCfgTypeDef pCompareCfg = {0};
 198              		.loc 1 38 25 is_stmt 0 view .LVU42
 199 000e 5422     		movs	r2, #84
 200 0010 2146     		mov	r1, r4
 201 0012 0BA8     		add	r0, sp, #44
 202 0014 FFF7FEFF 		bl	memset
 203              	.LVL6:
  39:Core/Src/hrtim.c ****   HRTIM_OutputCfgTypeDef pOutputCfg = {0};
 204              		.loc 1 39 3 is_stmt 1 view .LVU43
  39:Core/Src/hrtim.c ****   HRTIM_OutputCfgTypeDef pOutputCfg = {0};
 205              		.loc 1 39 27 is_stmt 0 view .LVU44
 206 0018 0894     		str	r4, [sp, #32]
 207 001a 0994     		str	r4, [sp, #36]
 208 001c 0A94     		str	r4, [sp, #40]
  40:Core/Src/hrtim.c **** 
 209              		.loc 1 40 3 is_stmt 1 view .LVU45
  40:Core/Src/hrtim.c **** 
 210              		.loc 1 40 26 is_stmt 0 view .LVU46
 211 001e 2022     		movs	r2, #32
 212 0020 2146     		mov	r1, r4
 213 0022 6846     		mov	r0, sp
 214 0024 FFF7FEFF 		bl	memset
 215              	.LVL7:
  45:Core/Src/hrtim.c ****   hhrtim1.Init.HRTIMInterruptResquests = HRTIM_IT_NONE;
 216              		.loc 1 45 3 is_stmt 1 view .LVU47
  45:Core/Src/hrtim.c ****   hhrtim1.Init.HRTIMInterruptResquests = HRTIM_IT_NONE;
ARM GAS  C:\Users\cordi\AppData\Local\Temp\ccTuEr4W.s 			page 8


 217              		.loc 1 45 20 is_stmt 0 view .LVU48
 218 0028 3B48     		ldr	r0, .L32
 219 002a 3C4B     		ldr	r3, .L32+4
 220 002c 0360     		str	r3, [r0]
  46:Core/Src/hrtim.c ****   hhrtim1.Init.SyncOptions = HRTIM_SYNCOPTION_NONE;
 221              		.loc 1 46 3 is_stmt 1 view .LVU49
  46:Core/Src/hrtim.c ****   hhrtim1.Init.SyncOptions = HRTIM_SYNCOPTION_NONE;
 222              		.loc 1 46 40 is_stmt 0 view .LVU50
 223 002e 4460     		str	r4, [r0, #4]
  47:Core/Src/hrtim.c ****   if (HAL_HRTIM_Init(&hhrtim1) != HAL_OK)
 224              		.loc 1 47 3 is_stmt 1 view .LVU51
  47:Core/Src/hrtim.c ****   if (HAL_HRTIM_Init(&hhrtim1) != HAL_OK)
 225              		.loc 1 47 28 is_stmt 0 view .LVU52
 226 0030 8460     		str	r4, [r0, #8]
  48:Core/Src/hrtim.c ****   {
 227              		.loc 1 48 3 is_stmt 1 view .LVU53
  48:Core/Src/hrtim.c ****   {
 228              		.loc 1 48 7 is_stmt 0 view .LVU54
 229 0032 FFF7FEFF 		bl	HAL_HRTIM_Init
 230              	.LVL8:
  48:Core/Src/hrtim.c ****   {
 231              		.loc 1 48 6 view .LVU55
 232 0036 0028     		cmp	r0, #0
 233 0038 58D1     		bne	.L25
 234              	.L17:
  52:Core/Src/hrtim.c ****   {
 235              		.loc 1 52 3 is_stmt 1 view .LVU56
  52:Core/Src/hrtim.c ****   {
 236              		.loc 1 52 7 is_stmt 0 view .LVU57
 237 003a 0021     		movs	r1, #0
 238 003c 3648     		ldr	r0, .L32
 239 003e FFF7FEFF 		bl	HAL_HRTIM_DLLCalibrationStart
 240              	.LVL9:
  52:Core/Src/hrtim.c ****   {
 241              		.loc 1 52 6 view .LVU58
 242 0042 0028     		cmp	r0, #0
 243 0044 55D1     		bne	.L26
 244              	.L18:
  56:Core/Src/hrtim.c ****   {
 245              		.loc 1 56 3 is_stmt 1 view .LVU59
  56:Core/Src/hrtim.c ****   {
 246              		.loc 1 56 7 is_stmt 0 view .LVU60
 247 0046 0A21     		movs	r1, #10
 248 0048 3348     		ldr	r0, .L32
 249 004a FFF7FEFF 		bl	HAL_HRTIM_PollForDLLCalibration
 250              	.LVL10:
  56:Core/Src/hrtim.c ****   {
 251              		.loc 1 56 6 view .LVU61
 252 004e 0028     		cmp	r0, #0
 253 0050 52D1     		bne	.L27
 254              	.L19:
  60:Core/Src/hrtim.c ****   pTimeBaseCfg.RepetitionCounter = 0x00;
 255              		.loc 1 60 3 is_stmt 1 view .LVU62
  60:Core/Src/hrtim.c ****   pTimeBaseCfg.RepetitionCounter = 0x00;
 256              		.loc 1 60 23 is_stmt 0 view .LVU63
 257 0052 40F2A453 		movw	r3, #1444
 258 0056 2093     		str	r3, [sp, #128]
ARM GAS  C:\Users\cordi\AppData\Local\Temp\ccTuEr4W.s 			page 9


  61:Core/Src/hrtim.c ****   pTimeBaseCfg.PrescalerRatio = HRTIM_PRESCALERRATIO_MUL32;
 259              		.loc 1 61 3 is_stmt 1 view .LVU64
  61:Core/Src/hrtim.c ****   pTimeBaseCfg.PrescalerRatio = HRTIM_PRESCALERRATIO_MUL32;
 260              		.loc 1 61 34 is_stmt 0 view .LVU65
 261 0058 0023     		movs	r3, #0
 262 005a 2193     		str	r3, [sp, #132]
  62:Core/Src/hrtim.c ****   pTimeBaseCfg.Mode = HRTIM_MODE_CONTINUOUS;
 263              		.loc 1 62 3 is_stmt 1 view .LVU66
  62:Core/Src/hrtim.c ****   pTimeBaseCfg.Mode = HRTIM_MODE_CONTINUOUS;
 264              		.loc 1 62 31 is_stmt 0 view .LVU67
 265 005c 2293     		str	r3, [sp, #136]
  63:Core/Src/hrtim.c ****   if (HAL_HRTIM_TimeBaseConfig(&hhrtim1, HRTIM_TIMERINDEX_TIMER_C, &pTimeBaseCfg) != HAL_OK)
 266              		.loc 1 63 3 is_stmt 1 view .LVU68
  63:Core/Src/hrtim.c ****   if (HAL_HRTIM_TimeBaseConfig(&hhrtim1, HRTIM_TIMERINDEX_TIMER_C, &pTimeBaseCfg) != HAL_OK)
 267              		.loc 1 63 21 is_stmt 0 view .LVU69
 268 005e 0823     		movs	r3, #8
 269 0060 2393     		str	r3, [sp, #140]
  64:Core/Src/hrtim.c ****   {
 270              		.loc 1 64 3 is_stmt 1 view .LVU70
  64:Core/Src/hrtim.c ****   {
 271              		.loc 1 64 7 is_stmt 0 view .LVU71
 272 0062 20AA     		add	r2, sp, #128
 273 0064 0221     		movs	r1, #2
 274 0066 2C48     		ldr	r0, .L32
 275 0068 FFF7FEFF 		bl	HAL_HRTIM_TimeBaseConfig
 276              	.LVL11:
  64:Core/Src/hrtim.c ****   {
 277              		.loc 1 64 6 view .LVU72
 278 006c 0028     		cmp	r0, #0
 279 006e 46D1     		bne	.L28
 280              	.L20:
  68:Core/Src/hrtim.c ****   pTimerCfg.DMARequests = HRTIM_TIM_DMA_NONE;
 281              		.loc 1 68 3 is_stmt 1 view .LVU73
  68:Core/Src/hrtim.c ****   pTimerCfg.DMARequests = HRTIM_TIM_DMA_NONE;
 282              		.loc 1 68 31 is_stmt 0 view .LVU74
 283 0070 0023     		movs	r3, #0
 284 0072 0B93     		str	r3, [sp, #44]
  69:Core/Src/hrtim.c ****   pTimerCfg.DMASrcAddress = 0x0000;
 285              		.loc 1 69 3 is_stmt 1 view .LVU75
  69:Core/Src/hrtim.c ****   pTimerCfg.DMASrcAddress = 0x0000;
 286              		.loc 1 69 25 is_stmt 0 view .LVU76
 287 0074 0C93     		str	r3, [sp, #48]
  70:Core/Src/hrtim.c ****   pTimerCfg.DMADstAddress = 0x0000;
 288              		.loc 1 70 3 is_stmt 1 view .LVU77
  70:Core/Src/hrtim.c ****   pTimerCfg.DMADstAddress = 0x0000;
 289              		.loc 1 70 27 is_stmt 0 view .LVU78
 290 0076 0D93     		str	r3, [sp, #52]
  71:Core/Src/hrtim.c ****   pTimerCfg.DMASize = 0x1;
 291              		.loc 1 71 3 is_stmt 1 view .LVU79
  71:Core/Src/hrtim.c ****   pTimerCfg.DMASize = 0x1;
 292              		.loc 1 71 27 is_stmt 0 view .LVU80
 293 0078 0E93     		str	r3, [sp, #56]
  72:Core/Src/hrtim.c ****   pTimerCfg.HalfModeEnable = HRTIM_HALFMODE_DISABLED;
 294              		.loc 1 72 3 is_stmt 1 view .LVU81
  72:Core/Src/hrtim.c ****   pTimerCfg.HalfModeEnable = HRTIM_HALFMODE_DISABLED;
 295              		.loc 1 72 21 is_stmt 0 view .LVU82
 296 007a 0122     		movs	r2, #1
ARM GAS  C:\Users\cordi\AppData\Local\Temp\ccTuEr4W.s 			page 10


 297 007c 0F92     		str	r2, [sp, #60]
  73:Core/Src/hrtim.c ****   pTimerCfg.StartOnSync = HRTIM_SYNCSTART_DISABLED;
 298              		.loc 1 73 3 is_stmt 1 view .LVU83
  73:Core/Src/hrtim.c ****   pTimerCfg.StartOnSync = HRTIM_SYNCSTART_DISABLED;
 299              		.loc 1 73 28 is_stmt 0 view .LVU84
 300 007e 1093     		str	r3, [sp, #64]
  74:Core/Src/hrtim.c ****   pTimerCfg.ResetOnSync = HRTIM_SYNCRESET_DISABLED;
 301              		.loc 1 74 3 is_stmt 1 view .LVU85
  74:Core/Src/hrtim.c ****   pTimerCfg.ResetOnSync = HRTIM_SYNCRESET_DISABLED;
 302              		.loc 1 74 25 is_stmt 0 view .LVU86
 303 0080 1193     		str	r3, [sp, #68]
  75:Core/Src/hrtim.c ****   pTimerCfg.DACSynchro = HRTIM_DACSYNC_NONE;
 304              		.loc 1 75 3 is_stmt 1 view .LVU87
  75:Core/Src/hrtim.c ****   pTimerCfg.DACSynchro = HRTIM_DACSYNC_NONE;
 305              		.loc 1 75 25 is_stmt 0 view .LVU88
 306 0082 1293     		str	r3, [sp, #72]
  76:Core/Src/hrtim.c ****   pTimerCfg.PreloadEnable = HRTIM_PRELOAD_DISABLED;
 307              		.loc 1 76 3 is_stmt 1 view .LVU89
  76:Core/Src/hrtim.c ****   pTimerCfg.PreloadEnable = HRTIM_PRELOAD_DISABLED;
 308              		.loc 1 76 24 is_stmt 0 view .LVU90
 309 0084 1393     		str	r3, [sp, #76]
  77:Core/Src/hrtim.c ****   pTimerCfg.UpdateGating = HRTIM_UPDATEGATING_INDEPENDENT;
 310              		.loc 1 77 3 is_stmt 1 view .LVU91
  77:Core/Src/hrtim.c ****   pTimerCfg.UpdateGating = HRTIM_UPDATEGATING_INDEPENDENT;
 311              		.loc 1 77 27 is_stmt 0 view .LVU92
 312 0086 1493     		str	r3, [sp, #80]
  78:Core/Src/hrtim.c ****   pTimerCfg.BurstMode = HRTIM_TIMERBURSTMODE_MAINTAINCLOCK;
 313              		.loc 1 78 3 is_stmt 1 view .LVU93
  78:Core/Src/hrtim.c ****   pTimerCfg.BurstMode = HRTIM_TIMERBURSTMODE_MAINTAINCLOCK;
 314              		.loc 1 78 26 is_stmt 0 view .LVU94
 315 0088 1593     		str	r3, [sp, #84]
  79:Core/Src/hrtim.c ****   pTimerCfg.RepetitionUpdate = HRTIM_UPDATEONREPETITION_DISABLED;
 316              		.loc 1 79 3 is_stmt 1 view .LVU95
  79:Core/Src/hrtim.c ****   pTimerCfg.RepetitionUpdate = HRTIM_UPDATEONREPETITION_DISABLED;
 317              		.loc 1 79 23 is_stmt 0 view .LVU96
 318 008a 1693     		str	r3, [sp, #88]
  80:Core/Src/hrtim.c ****   pTimerCfg.PushPull = HRTIM_TIMPUSHPULLMODE_DISABLED;
 319              		.loc 1 80 3 is_stmt 1 view .LVU97
  80:Core/Src/hrtim.c ****   pTimerCfg.PushPull = HRTIM_TIMPUSHPULLMODE_DISABLED;
 320              		.loc 1 80 30 is_stmt 0 view .LVU98
 321 008c 1793     		str	r3, [sp, #92]
  81:Core/Src/hrtim.c ****   pTimerCfg.FaultEnable = HRTIM_TIMFAULTENABLE_NONE;
 322              		.loc 1 81 3 is_stmt 1 view .LVU99
  81:Core/Src/hrtim.c ****   pTimerCfg.FaultEnable = HRTIM_TIMFAULTENABLE_NONE;
 323              		.loc 1 81 22 is_stmt 0 view .LVU100
 324 008e 1893     		str	r3, [sp, #96]
  82:Core/Src/hrtim.c ****   pTimerCfg.FaultLock = HRTIM_TIMFAULTLOCK_READWRITE;
 325              		.loc 1 82 3 is_stmt 1 view .LVU101
  82:Core/Src/hrtim.c ****   pTimerCfg.FaultLock = HRTIM_TIMFAULTLOCK_READWRITE;
 326              		.loc 1 82 25 is_stmt 0 view .LVU102
 327 0090 1993     		str	r3, [sp, #100]
  83:Core/Src/hrtim.c ****   pTimerCfg.DeadTimeInsertion = HRTIM_TIMDEADTIMEINSERTION_DISABLED;
 328              		.loc 1 83 3 is_stmt 1 view .LVU103
  83:Core/Src/hrtim.c ****   pTimerCfg.DeadTimeInsertion = HRTIM_TIMDEADTIMEINSERTION_DISABLED;
 329              		.loc 1 83 23 is_stmt 0 view .LVU104
 330 0092 1A93     		str	r3, [sp, #104]
  84:Core/Src/hrtim.c ****   pTimerCfg.DelayedProtectionMode = HRTIM_TIMER_A_B_C_DELAYEDPROTECTION_DISABLED;
ARM GAS  C:\Users\cordi\AppData\Local\Temp\ccTuEr4W.s 			page 11


 331              		.loc 1 84 3 is_stmt 1 view .LVU105
  84:Core/Src/hrtim.c ****   pTimerCfg.DelayedProtectionMode = HRTIM_TIMER_A_B_C_DELAYEDPROTECTION_DISABLED;
 332              		.loc 1 84 31 is_stmt 0 view .LVU106
 333 0094 1B93     		str	r3, [sp, #108]
  85:Core/Src/hrtim.c ****   pTimerCfg.UpdateTrigger = HRTIM_TIMUPDATETRIGGER_NONE;
 334              		.loc 1 85 3 is_stmt 1 view .LVU107
  85:Core/Src/hrtim.c ****   pTimerCfg.UpdateTrigger = HRTIM_TIMUPDATETRIGGER_NONE;
 335              		.loc 1 85 35 is_stmt 0 view .LVU108
 336 0096 1C93     		str	r3, [sp, #112]
  86:Core/Src/hrtim.c ****   pTimerCfg.ResetTrigger = HRTIM_TIMRESETTRIGGER_NONE;
 337              		.loc 1 86 3 is_stmt 1 view .LVU109
  86:Core/Src/hrtim.c ****   pTimerCfg.ResetTrigger = HRTIM_TIMRESETTRIGGER_NONE;
 338              		.loc 1 86 27 is_stmt 0 view .LVU110
 339 0098 1D93     		str	r3, [sp, #116]
  87:Core/Src/hrtim.c ****   pTimerCfg.ResetUpdate = HRTIM_TIMUPDATEONRESET_DISABLED;
 340              		.loc 1 87 3 is_stmt 1 view .LVU111
  87:Core/Src/hrtim.c ****   pTimerCfg.ResetUpdate = HRTIM_TIMUPDATEONRESET_DISABLED;
 341              		.loc 1 87 26 is_stmt 0 view .LVU112
 342 009a 1E93     		str	r3, [sp, #120]
  88:Core/Src/hrtim.c ****   if (HAL_HRTIM_WaveformTimerConfig(&hhrtim1, HRTIM_TIMERINDEX_TIMER_C, &pTimerCfg) != HAL_OK)
 343              		.loc 1 88 3 is_stmt 1 view .LVU113
  88:Core/Src/hrtim.c ****   if (HAL_HRTIM_WaveformTimerConfig(&hhrtim1, HRTIM_TIMERINDEX_TIMER_C, &pTimerCfg) != HAL_OK)
 344              		.loc 1 88 25 is_stmt 0 view .LVU114
 345 009c 1F93     		str	r3, [sp, #124]
  89:Core/Src/hrtim.c ****   {
 346              		.loc 1 89 3 is_stmt 1 view .LVU115
  89:Core/Src/hrtim.c ****   {
 347              		.loc 1 89 7 is_stmt 0 view .LVU116
 348 009e 0BAA     		add	r2, sp, #44
 349 00a0 0221     		movs	r1, #2
 350 00a2 1D48     		ldr	r0, .L32
 351 00a4 FFF7FEFF 		bl	HAL_HRTIM_WaveformTimerConfig
 352              	.LVL12:
  89:Core/Src/hrtim.c ****   {
 353              		.loc 1 89 6 view .LVU117
 354 00a8 60BB     		cbnz	r0, .L29
 355              	.L21:
  93:Core/Src/hrtim.c ****   if (HAL_HRTIM_WaveformCompareConfig(&hhrtim1, HRTIM_TIMERINDEX_TIMER_C, HRTIM_COMPAREUNIT_1, &pCo
 356              		.loc 1 93 3 is_stmt 1 view .LVU118
  93:Core/Src/hrtim.c ****   if (HAL_HRTIM_WaveformCompareConfig(&hhrtim1, HRTIM_TIMERINDEX_TIMER_C, HRTIM_COMPAREUNIT_1, &pCo
 357              		.loc 1 93 28 is_stmt 0 view .LVU119
 358 00aa 40F2D223 		movw	r3, #722
 359 00ae 0893     		str	r3, [sp, #32]
  94:Core/Src/hrtim.c ****   {
 360              		.loc 1 94 3 is_stmt 1 view .LVU120
  94:Core/Src/hrtim.c ****   {
 361              		.loc 1 94 7 is_stmt 0 view .LVU121
 362 00b0 08AB     		add	r3, sp, #32
 363 00b2 0122     		movs	r2, #1
 364 00b4 0221     		movs	r1, #2
 365 00b6 1848     		ldr	r0, .L32
 366 00b8 FFF7FEFF 		bl	HAL_HRTIM_WaveformCompareConfig
 367              	.LVL13:
  94:Core/Src/hrtim.c ****   {
 368              		.loc 1 94 6 view .LVU122
 369 00bc 28BB     		cbnz	r0, .L30
 370              	.L22:
ARM GAS  C:\Users\cordi\AppData\Local\Temp\ccTuEr4W.s 			page 12


  98:Core/Src/hrtim.c ****   pOutputCfg.SetSource = HRTIM_OUTPUTSET_TIMPER;
 371              		.loc 1 98 3 is_stmt 1 view .LVU123
  98:Core/Src/hrtim.c ****   pOutputCfg.SetSource = HRTIM_OUTPUTSET_TIMPER;
 372              		.loc 1 98 23 is_stmt 0 view .LVU124
 373 00be 0023     		movs	r3, #0
 374 00c0 0093     		str	r3, [sp]
  99:Core/Src/hrtim.c ****   pOutputCfg.ResetSource = HRTIM_OUTPUTRESET_TIMCMP1;
 375              		.loc 1 99 3 is_stmt 1 view .LVU125
  99:Core/Src/hrtim.c ****   pOutputCfg.ResetSource = HRTIM_OUTPUTRESET_TIMCMP1;
 376              		.loc 1 99 24 is_stmt 0 view .LVU126
 377 00c2 0422     		movs	r2, #4
 378 00c4 0192     		str	r2, [sp, #4]
 100:Core/Src/hrtim.c ****   pOutputCfg.IdleMode = HRTIM_OUTPUTIDLEMODE_NONE;
 379              		.loc 1 100 3 is_stmt 1 view .LVU127
 100:Core/Src/hrtim.c ****   pOutputCfg.IdleMode = HRTIM_OUTPUTIDLEMODE_NONE;
 380              		.loc 1 100 26 is_stmt 0 view .LVU128
 381 00c6 0822     		movs	r2, #8
 382 00c8 0292     		str	r2, [sp, #8]
 101:Core/Src/hrtim.c ****   pOutputCfg.IdleLevel = HRTIM_OUTPUTIDLELEVEL_INACTIVE;
 383              		.loc 1 101 3 is_stmt 1 view .LVU129
 101:Core/Src/hrtim.c ****   pOutputCfg.IdleLevel = HRTIM_OUTPUTIDLELEVEL_INACTIVE;
 384              		.loc 1 101 23 is_stmt 0 view .LVU130
 385 00ca 0393     		str	r3, [sp, #12]
 102:Core/Src/hrtim.c ****   pOutputCfg.FaultLevel = HRTIM_OUTPUTFAULTLEVEL_NONE;
 386              		.loc 1 102 3 is_stmt 1 view .LVU131
 102:Core/Src/hrtim.c ****   pOutputCfg.FaultLevel = HRTIM_OUTPUTFAULTLEVEL_NONE;
 387              		.loc 1 102 24 is_stmt 0 view .LVU132
 388 00cc 0493     		str	r3, [sp, #16]
 103:Core/Src/hrtim.c ****   pOutputCfg.ChopperModeEnable = HRTIM_OUTPUTCHOPPERMODE_DISABLED;
 389              		.loc 1 103 3 is_stmt 1 view .LVU133
 103:Core/Src/hrtim.c ****   pOutputCfg.ChopperModeEnable = HRTIM_OUTPUTCHOPPERMODE_DISABLED;
 390              		.loc 1 103 25 is_stmt 0 view .LVU134
 391 00ce 0593     		str	r3, [sp, #20]
 104:Core/Src/hrtim.c ****   pOutputCfg.BurstModeEntryDelayed = HRTIM_OUTPUTBURSTMODEENTRY_REGULAR;
 392              		.loc 1 104 3 is_stmt 1 view .LVU135
 104:Core/Src/hrtim.c ****   pOutputCfg.BurstModeEntryDelayed = HRTIM_OUTPUTBURSTMODEENTRY_REGULAR;
 393              		.loc 1 104 32 is_stmt 0 view .LVU136
 394 00d0 0693     		str	r3, [sp, #24]
 105:Core/Src/hrtim.c ****   if (HAL_HRTIM_WaveformOutputConfig(&hhrtim1, HRTIM_TIMERINDEX_TIMER_C, HRTIM_OUTPUT_TC1, &pOutput
 395              		.loc 1 105 3 is_stmt 1 view .LVU137
 105:Core/Src/hrtim.c ****   if (HAL_HRTIM_WaveformOutputConfig(&hhrtim1, HRTIM_TIMERINDEX_TIMER_C, HRTIM_OUTPUT_TC1, &pOutput
 396              		.loc 1 105 36 is_stmt 0 view .LVU138
 397 00d2 0793     		str	r3, [sp, #28]
 106:Core/Src/hrtim.c ****   {
 398              		.loc 1 106 3 is_stmt 1 view .LVU139
 106:Core/Src/hrtim.c ****   {
 399              		.loc 1 106 7 is_stmt 0 view .LVU140
 400 00d4 6B46     		mov	r3, sp
 401 00d6 1022     		movs	r2, #16
 402 00d8 0221     		movs	r1, #2
 403 00da 0F48     		ldr	r0, .L32
 404 00dc FFF7FEFF 		bl	HAL_HRTIM_WaveformOutputConfig
 405              	.LVL14:
 106:Core/Src/hrtim.c ****   {
 406              		.loc 1 106 6 view .LVU141
 407 00e0 B0B9     		cbnz	r0, .L31
 408              	.L23:
ARM GAS  C:\Users\cordi\AppData\Local\Temp\ccTuEr4W.s 			page 13


 113:Core/Src/hrtim.c **** 
 409              		.loc 1 113 3 is_stmt 1 view .LVU142
 410 00e2 0D48     		ldr	r0, .L32
 411 00e4 FFF7FEFF 		bl	HAL_HRTIM_MspPostInit
 412              	.LVL15:
 115:Core/Src/hrtim.c **** 
 413              		.loc 1 115 1 is_stmt 0 view .LVU143
 414 00e8 24B0     		add	sp, sp, #144
 415              		.cfi_remember_state
 416              		.cfi_def_cfa_offset 8
 417              		@ sp needed
 418 00ea 10BD     		pop	{r4, pc}
 419              	.L25:
 420              		.cfi_restore_state
  50:Core/Src/hrtim.c ****   }
 421              		.loc 1 50 5 is_stmt 1 view .LVU144
 422 00ec FFF7FEFF 		bl	Error_Handler
 423              	.LVL16:
 424 00f0 A3E7     		b	.L17
 425              	.L26:
  54:Core/Src/hrtim.c ****   }
 426              		.loc 1 54 5 view .LVU145
 427 00f2 FFF7FEFF 		bl	Error_Handler
 428              	.LVL17:
 429 00f6 A6E7     		b	.L18
 430              	.L27:
  58:Core/Src/hrtim.c ****   }
 431              		.loc 1 58 5 view .LVU146
 432 00f8 FFF7FEFF 		bl	Error_Handler
 433              	.LVL18:
 434 00fc A9E7     		b	.L19
 435              	.L28:
  66:Core/Src/hrtim.c ****   }
 436              		.loc 1 66 5 view .LVU147
 437 00fe FFF7FEFF 		bl	Error_Handler
 438              	.LVL19:
 439 0102 B5E7     		b	.L20
 440              	.L29:
  91:Core/Src/hrtim.c ****   }
 441              		.loc 1 91 5 view .LVU148
 442 0104 FFF7FEFF 		bl	Error_Handler
 443              	.LVL20:
 444 0108 CFE7     		b	.L21
 445              	.L30:
  96:Core/Src/hrtim.c ****   }
 446              		.loc 1 96 5 view .LVU149
 447 010a FFF7FEFF 		bl	Error_Handler
 448              	.LVL21:
 449 010e D6E7     		b	.L22
 450              	.L31:
 108:Core/Src/hrtim.c ****   }
 451              		.loc 1 108 5 view .LVU150
 452 0110 FFF7FEFF 		bl	Error_Handler
 453              	.LVL22:
 454 0114 E5E7     		b	.L23
 455              	.L33:
 456 0116 00BF     		.align	2
ARM GAS  C:\Users\cordi\AppData\Local\Temp\ccTuEr4W.s 			page 14


 457              	.L32:
 458 0118 00000000 		.word	hhrtim1
 459 011c 00740140 		.word	1073837056
 460              		.cfi_endproc
 461              	.LFE123:
 463              		.section	.text.HAL_HRTIM_MspDeInit,"ax",%progbits
 464              		.align	1
 465              		.global	HAL_HRTIM_MspDeInit
 466              		.syntax unified
 467              		.thumb
 468              		.thumb_func
 470              	HAL_HRTIM_MspDeInit:
 471              	.LVL23:
 472              	.LFB126:
 160:Core/Src/hrtim.c **** 
 161:Core/Src/hrtim.c **** void HAL_HRTIM_MspDeInit(HRTIM_HandleTypeDef* hrtimHandle)
 162:Core/Src/hrtim.c **** {
 473              		.loc 1 162 1 view -0
 474              		.cfi_startproc
 475              		@ args = 0, pretend = 0, frame = 0
 476              		@ frame_needed = 0, uses_anonymous_args = 0
 477              		@ link register save eliminated.
 163:Core/Src/hrtim.c **** 
 164:Core/Src/hrtim.c ****   if(hrtimHandle->Instance==HRTIM1)
 478              		.loc 1 164 3 view .LVU152
 479              		.loc 1 164 17 is_stmt 0 view .LVU153
 480 0000 0268     		ldr	r2, [r0]
 481              		.loc 1 164 5 view .LVU154
 482 0002 054B     		ldr	r3, .L37
 483 0004 9A42     		cmp	r2, r3
 484 0006 00D0     		beq	.L36
 485              	.L34:
 165:Core/Src/hrtim.c ****   {
 166:Core/Src/hrtim.c ****   /* USER CODE BEGIN HRTIM1_MspDeInit 0 */
 167:Core/Src/hrtim.c **** 
 168:Core/Src/hrtim.c ****   /* USER CODE END HRTIM1_MspDeInit 0 */
 169:Core/Src/hrtim.c ****     /* Peripheral clock disable */
 170:Core/Src/hrtim.c ****     __HAL_RCC_HRTIM1_CLK_DISABLE();
 171:Core/Src/hrtim.c ****   /* USER CODE BEGIN HRTIM1_MspDeInit 1 */
 172:Core/Src/hrtim.c **** 
 173:Core/Src/hrtim.c ****   /* USER CODE END HRTIM1_MspDeInit 1 */
 174:Core/Src/hrtim.c ****   }
 175:Core/Src/hrtim.c **** }
 486              		.loc 1 175 1 view .LVU155
 487 0008 7047     		bx	lr
 488              	.L36:
 170:Core/Src/hrtim.c ****   /* USER CODE BEGIN HRTIM1_MspDeInit 1 */
 489              		.loc 1 170 5 is_stmt 1 view .LVU156
 490 000a 044A     		ldr	r2, .L37+4
 491 000c 9369     		ldr	r3, [r2, #24]
 492 000e 23F00053 		bic	r3, r3, #536870912
 493 0012 9361     		str	r3, [r2, #24]
 494              		.loc 1 175 1 is_stmt 0 view .LVU157
 495 0014 F8E7     		b	.L34
 496              	.L38:
 497 0016 00BF     		.align	2
 498              	.L37:
ARM GAS  C:\Users\cordi\AppData\Local\Temp\ccTuEr4W.s 			page 15


 499 0018 00740140 		.word	1073837056
 500 001c 00100240 		.word	1073876992
 501              		.cfi_endproc
 502              	.LFE126:
 504              		.global	hhrtim1
 505              		.section	.bss.hhrtim1,"aw",%nobits
 506              		.align	2
 509              	hhrtim1:
 510 0000 00000000 		.space	220
 510      00000000 
 510      00000000 
 510      00000000 
 510      00000000 
 511              		.text
 512              	.Letext0:
 513              		.file 2 "c:\\program files (x86)\\arm gnu toolchain arm-none-eabi\\12.2 mpacbti-bet1\\arm-none-eab
 514              		.file 3 "c:\\program files (x86)\\arm gnu toolchain arm-none-eabi\\12.2 mpacbti-bet1\\arm-none-eab
 515              		.file 4 "Drivers/CMSIS/Device/ST/STM32F3xx/Include/stm32f334x8.h"
 516              		.file 5 "Drivers/STM32F3xx_HAL_Driver/Inc/stm32f3xx_hal_def.h"
 517              		.file 6 "Drivers/STM32F3xx_HAL_Driver/Inc/stm32f3xx_hal_gpio.h"
 518              		.file 7 "Drivers/STM32F3xx_HAL_Driver/Inc/stm32f3xx_hal_dma.h"
 519              		.file 8 "Drivers/STM32F3xx_HAL_Driver/Inc/stm32f3xx_hal_hrtim.h"
 520              		.file 9 "Core/Inc/hrtim.h"
 521              		.file 10 "Core/Inc/main.h"
 522              		.file 11 "<built-in>"
ARM GAS  C:\Users\cordi\AppData\Local\Temp\ccTuEr4W.s 			page 16

