ARM GAS  C:\Users\cordi\AppData\Local\Temp\ccHp0T4h.s 			page 1


   1              		.cpu cortex-m4
   2              		.arch armv7e-m
   3              		.fpu fpv4-sp-d16
   4              		.eabi_attribute 27, 1
   5              		.eabi_attribute 28, 1
   6              		.eabi_attribute 20, 1
   7              		.eabi_attribute 21, 1
   8              		.eabi_attribute 23, 3
   9              		.eabi_attribute 24, 1
  10              		.eabi_attribute 25, 1
  11              		.eabi_attribute 26, 1
  12              		.eabi_attribute 30, 1
  13              		.eabi_attribute 34, 1
  14              		.eabi_attribute 18, 4
  15              		.file	"stm32f3xx_hal_dma.c"
  16              		.text
  17              	.Ltext0:
  18              		.cfi_sections	.debug_frame
  19              		.file 1 "Drivers/STM32F3xx_HAL_Driver/Src/stm32f3xx_hal_dma.c"
  20              		.section	.text.DMA_SetConfig,"ax",%progbits
  21              		.align	1
  22              		.syntax unified
  23              		.thumb
  24              		.thumb_func
  26              	DMA_SetConfig:
  27              	.LVL0:
  28              	.LFB135:
   1:Drivers/STM32F3xx_HAL_Driver/Src/stm32f3xx_hal_dma.c **** /**
   2:Drivers/STM32F3xx_HAL_Driver/Src/stm32f3xx_hal_dma.c ****   ******************************************************************************
   3:Drivers/STM32F3xx_HAL_Driver/Src/stm32f3xx_hal_dma.c ****   * @file    stm32f3xx_hal_dma.c
   4:Drivers/STM32F3xx_HAL_Driver/Src/stm32f3xx_hal_dma.c ****   * @author  MCD Application Team
   5:Drivers/STM32F3xx_HAL_Driver/Src/stm32f3xx_hal_dma.c ****   * @brief   DMA HAL module driver.
   6:Drivers/STM32F3xx_HAL_Driver/Src/stm32f3xx_hal_dma.c ****   *    
   7:Drivers/STM32F3xx_HAL_Driver/Src/stm32f3xx_hal_dma.c ****   *         This file provides firmware functions to manage the following 
   8:Drivers/STM32F3xx_HAL_Driver/Src/stm32f3xx_hal_dma.c ****   *         functionalities of the Direct Memory Access (DMA) peripheral:
   9:Drivers/STM32F3xx_HAL_Driver/Src/stm32f3xx_hal_dma.c ****   *           + Initialization and de-initialization functions
  10:Drivers/STM32F3xx_HAL_Driver/Src/stm32f3xx_hal_dma.c ****   *           + IO operation functions
  11:Drivers/STM32F3xx_HAL_Driver/Src/stm32f3xx_hal_dma.c ****   *           + Peripheral State and errors functions
  12:Drivers/STM32F3xx_HAL_Driver/Src/stm32f3xx_hal_dma.c ****   @verbatim     
  13:Drivers/STM32F3xx_HAL_Driver/Src/stm32f3xx_hal_dma.c ****   ==============================================================================      
  14:Drivers/STM32F3xx_HAL_Driver/Src/stm32f3xx_hal_dma.c ****                         ##### How to use this driver #####
  15:Drivers/STM32F3xx_HAL_Driver/Src/stm32f3xx_hal_dma.c ****   ============================================================================== 
  16:Drivers/STM32F3xx_HAL_Driver/Src/stm32f3xx_hal_dma.c ****   [..]
  17:Drivers/STM32F3xx_HAL_Driver/Src/stm32f3xx_hal_dma.c ****    (#) Enable and configure the peripheral to be connected to the DMA Channel
  18:Drivers/STM32F3xx_HAL_Driver/Src/stm32f3xx_hal_dma.c ****        (except for internal SRAM / FLASH memories: no initialization is 
  19:Drivers/STM32F3xx_HAL_Driver/Src/stm32f3xx_hal_dma.c ****        necessary). Please refer to Reference manual for connection between peripherals
  20:Drivers/STM32F3xx_HAL_Driver/Src/stm32f3xx_hal_dma.c ****        and DMA requests .
  21:Drivers/STM32F3xx_HAL_Driver/Src/stm32f3xx_hal_dma.c **** 
  22:Drivers/STM32F3xx_HAL_Driver/Src/stm32f3xx_hal_dma.c ****    (#) For a given Channel, program the required configuration through the following parameters:   
  23:Drivers/STM32F3xx_HAL_Driver/Src/stm32f3xx_hal_dma.c ****        Transfer Direction, Source and Destination data formats, 
  24:Drivers/STM32F3xx_HAL_Driver/Src/stm32f3xx_hal_dma.c ****        Circular or Normal mode, Channel Priority level, Source and Destination Increment mode, 
  25:Drivers/STM32F3xx_HAL_Driver/Src/stm32f3xx_hal_dma.c ****        using HAL_DMA_Init() function.
  26:Drivers/STM32F3xx_HAL_Driver/Src/stm32f3xx_hal_dma.c **** 
  27:Drivers/STM32F3xx_HAL_Driver/Src/stm32f3xx_hal_dma.c ****    (#) Use HAL_DMA_GetState() function to return the DMA state and HAL_DMA_GetError() in case of er
  28:Drivers/STM32F3xx_HAL_Driver/Src/stm32f3xx_hal_dma.c ****        detection.
  29:Drivers/STM32F3xx_HAL_Driver/Src/stm32f3xx_hal_dma.c ****                     
  30:Drivers/STM32F3xx_HAL_Driver/Src/stm32f3xx_hal_dma.c ****    (#) Use HAL_DMA_Abort() function to abort the current transfer
ARM GAS  C:\Users\cordi\AppData\Local\Temp\ccHp0T4h.s 			page 2


  31:Drivers/STM32F3xx_HAL_Driver/Src/stm32f3xx_hal_dma.c ****                    
  32:Drivers/STM32F3xx_HAL_Driver/Src/stm32f3xx_hal_dma.c ****      -@-   In Memory-to-Memory transfer mode, Circular mode is not allowed.
  33:Drivers/STM32F3xx_HAL_Driver/Src/stm32f3xx_hal_dma.c ****      *** Polling mode IO operation ***
  34:Drivers/STM32F3xx_HAL_Driver/Src/stm32f3xx_hal_dma.c ****      =================================   
  35:Drivers/STM32F3xx_HAL_Driver/Src/stm32f3xx_hal_dma.c ****     [..] 
  36:Drivers/STM32F3xx_HAL_Driver/Src/stm32f3xx_hal_dma.c ****       (+) Use HAL_DMA_Start() to start DMA transfer after the configuration of Source 
  37:Drivers/STM32F3xx_HAL_Driver/Src/stm32f3xx_hal_dma.c ****           address and destination address and the Length of data to be transferred
  38:Drivers/STM32F3xx_HAL_Driver/Src/stm32f3xx_hal_dma.c ****       (+) Use HAL_DMA_PollForTransfer() to poll for the end of current transfer, in this  
  39:Drivers/STM32F3xx_HAL_Driver/Src/stm32f3xx_hal_dma.c ****           case a fixed Timeout can be configured by User depending from his application.
  40:Drivers/STM32F3xx_HAL_Driver/Src/stm32f3xx_hal_dma.c **** 
  41:Drivers/STM32F3xx_HAL_Driver/Src/stm32f3xx_hal_dma.c ****      *** Interrupt mode IO operation ***    
  42:Drivers/STM32F3xx_HAL_Driver/Src/stm32f3xx_hal_dma.c ****      =================================== 
  43:Drivers/STM32F3xx_HAL_Driver/Src/stm32f3xx_hal_dma.c ****     [..]
  44:Drivers/STM32F3xx_HAL_Driver/Src/stm32f3xx_hal_dma.c ****       (+) Configure the DMA interrupt priority using HAL_NVIC_SetPriority()
  45:Drivers/STM32F3xx_HAL_Driver/Src/stm32f3xx_hal_dma.c ****       (+) Enable the DMA IRQ handler using HAL_NVIC_EnableIRQ() 
  46:Drivers/STM32F3xx_HAL_Driver/Src/stm32f3xx_hal_dma.c ****       (+) Use HAL_DMA_Start_IT() to start DMA transfer after the configuration of  
  47:Drivers/STM32F3xx_HAL_Driver/Src/stm32f3xx_hal_dma.c ****           Source address and destination address and the Length of data to be transferred. 
  48:Drivers/STM32F3xx_HAL_Driver/Src/stm32f3xx_hal_dma.c ****           In this case the DMA interrupt is configured 
  49:Drivers/STM32F3xx_HAL_Driver/Src/stm32f3xx_hal_dma.c ****       (+) Use HAL_DMA_Channel_IRQHandler() called under DMA_IRQHandler() Interrupt subroutine
  50:Drivers/STM32F3xx_HAL_Driver/Src/stm32f3xx_hal_dma.c ****       (+) At the end of data transfer HAL_DMA_IRQHandler() function is executed and user can 
  51:Drivers/STM32F3xx_HAL_Driver/Src/stm32f3xx_hal_dma.c ****           add his own function by customization of function pointer XferCpltCallback and 
  52:Drivers/STM32F3xx_HAL_Driver/Src/stm32f3xx_hal_dma.c ****           XferErrorCallback (i.e a member of DMA handle structure). 
  53:Drivers/STM32F3xx_HAL_Driver/Src/stm32f3xx_hal_dma.c **** 
  54:Drivers/STM32F3xx_HAL_Driver/Src/stm32f3xx_hal_dma.c ****      *** DMA HAL driver macros list ***
  55:Drivers/STM32F3xx_HAL_Driver/Src/stm32f3xx_hal_dma.c ****      ============================================= 
  56:Drivers/STM32F3xx_HAL_Driver/Src/stm32f3xx_hal_dma.c ****      [..]
  57:Drivers/STM32F3xx_HAL_Driver/Src/stm32f3xx_hal_dma.c ****        Below the list of most used macros in DMA HAL driver.
  58:Drivers/STM32F3xx_HAL_Driver/Src/stm32f3xx_hal_dma.c **** 
  59:Drivers/STM32F3xx_HAL_Driver/Src/stm32f3xx_hal_dma.c ****      [..] 
  60:Drivers/STM32F3xx_HAL_Driver/Src/stm32f3xx_hal_dma.c ****       (@) You can refer to the DMA HAL driver header file for more useful macros  
  61:Drivers/STM32F3xx_HAL_Driver/Src/stm32f3xx_hal_dma.c **** 
  62:Drivers/STM32F3xx_HAL_Driver/Src/stm32f3xx_hal_dma.c ****   @endverbatim
  63:Drivers/STM32F3xx_HAL_Driver/Src/stm32f3xx_hal_dma.c ****   ******************************************************************************
  64:Drivers/STM32F3xx_HAL_Driver/Src/stm32f3xx_hal_dma.c ****   * @attention
  65:Drivers/STM32F3xx_HAL_Driver/Src/stm32f3xx_hal_dma.c ****   *
  66:Drivers/STM32F3xx_HAL_Driver/Src/stm32f3xx_hal_dma.c ****   * Copyright (c) 2016 STMicroelectronics.
  67:Drivers/STM32F3xx_HAL_Driver/Src/stm32f3xx_hal_dma.c ****   * All rights reserved.
  68:Drivers/STM32F3xx_HAL_Driver/Src/stm32f3xx_hal_dma.c ****   *
  69:Drivers/STM32F3xx_HAL_Driver/Src/stm32f3xx_hal_dma.c ****   * This software is licensed under terms that can be found in the LICENSE file in
  70:Drivers/STM32F3xx_HAL_Driver/Src/stm32f3xx_hal_dma.c ****   * the root directory of this software component.
  71:Drivers/STM32F3xx_HAL_Driver/Src/stm32f3xx_hal_dma.c ****   * If no LICENSE file comes with this software, it is provided AS-IS.
  72:Drivers/STM32F3xx_HAL_Driver/Src/stm32f3xx_hal_dma.c ****   *
  73:Drivers/STM32F3xx_HAL_Driver/Src/stm32f3xx_hal_dma.c ****   ******************************************************************************
  74:Drivers/STM32F3xx_HAL_Driver/Src/stm32f3xx_hal_dma.c ****   */ 
  75:Drivers/STM32F3xx_HAL_Driver/Src/stm32f3xx_hal_dma.c **** 
  76:Drivers/STM32F3xx_HAL_Driver/Src/stm32f3xx_hal_dma.c **** /* Includes ------------------------------------------------------------------*/
  77:Drivers/STM32F3xx_HAL_Driver/Src/stm32f3xx_hal_dma.c **** #include "stm32f3xx_hal.h"
  78:Drivers/STM32F3xx_HAL_Driver/Src/stm32f3xx_hal_dma.c **** 
  79:Drivers/STM32F3xx_HAL_Driver/Src/stm32f3xx_hal_dma.c **** /** @addtogroup STM32F3xx_HAL_Driver
  80:Drivers/STM32F3xx_HAL_Driver/Src/stm32f3xx_hal_dma.c ****   * @{
  81:Drivers/STM32F3xx_HAL_Driver/Src/stm32f3xx_hal_dma.c ****   */
  82:Drivers/STM32F3xx_HAL_Driver/Src/stm32f3xx_hal_dma.c **** 
  83:Drivers/STM32F3xx_HAL_Driver/Src/stm32f3xx_hal_dma.c **** /** @defgroup DMA DMA
  84:Drivers/STM32F3xx_HAL_Driver/Src/stm32f3xx_hal_dma.c ****   * @brief DMA HAL module driver
  85:Drivers/STM32F3xx_HAL_Driver/Src/stm32f3xx_hal_dma.c ****   * @{
  86:Drivers/STM32F3xx_HAL_Driver/Src/stm32f3xx_hal_dma.c ****   */
  87:Drivers/STM32F3xx_HAL_Driver/Src/stm32f3xx_hal_dma.c **** 
ARM GAS  C:\Users\cordi\AppData\Local\Temp\ccHp0T4h.s 			page 3


  88:Drivers/STM32F3xx_HAL_Driver/Src/stm32f3xx_hal_dma.c **** #ifdef HAL_DMA_MODULE_ENABLED
  89:Drivers/STM32F3xx_HAL_Driver/Src/stm32f3xx_hal_dma.c **** 
  90:Drivers/STM32F3xx_HAL_Driver/Src/stm32f3xx_hal_dma.c **** /* Private typedef -----------------------------------------------------------*/
  91:Drivers/STM32F3xx_HAL_Driver/Src/stm32f3xx_hal_dma.c **** /* Private define ------------------------------------------------------------*/
  92:Drivers/STM32F3xx_HAL_Driver/Src/stm32f3xx_hal_dma.c **** /* Private macro -------------------------------------------------------------*/
  93:Drivers/STM32F3xx_HAL_Driver/Src/stm32f3xx_hal_dma.c **** /* Private variables ---------------------------------------------------------*/
  94:Drivers/STM32F3xx_HAL_Driver/Src/stm32f3xx_hal_dma.c **** /* Private function prototypes -----------------------------------------------*/
  95:Drivers/STM32F3xx_HAL_Driver/Src/stm32f3xx_hal_dma.c **** /** @defgroup DMA_Private_Functions DMA Private Functions
  96:Drivers/STM32F3xx_HAL_Driver/Src/stm32f3xx_hal_dma.c ****   * @{
  97:Drivers/STM32F3xx_HAL_Driver/Src/stm32f3xx_hal_dma.c ****   */
  98:Drivers/STM32F3xx_HAL_Driver/Src/stm32f3xx_hal_dma.c **** static void DMA_SetConfig(DMA_HandleTypeDef *hdma, uint32_t SrcAddress, uint32_t DstAddress, uint32
  99:Drivers/STM32F3xx_HAL_Driver/Src/stm32f3xx_hal_dma.c **** static void DMA_CalcBaseAndBitshift(DMA_HandleTypeDef *hdma);
 100:Drivers/STM32F3xx_HAL_Driver/Src/stm32f3xx_hal_dma.c **** /**
 101:Drivers/STM32F3xx_HAL_Driver/Src/stm32f3xx_hal_dma.c ****   * @}
 102:Drivers/STM32F3xx_HAL_Driver/Src/stm32f3xx_hal_dma.c ****   */
 103:Drivers/STM32F3xx_HAL_Driver/Src/stm32f3xx_hal_dma.c **** 
 104:Drivers/STM32F3xx_HAL_Driver/Src/stm32f3xx_hal_dma.c **** /* Exported functions ---------------------------------------------------------*/
 105:Drivers/STM32F3xx_HAL_Driver/Src/stm32f3xx_hal_dma.c **** 
 106:Drivers/STM32F3xx_HAL_Driver/Src/stm32f3xx_hal_dma.c **** /** @defgroup DMA_Exported_Functions DMA Exported Functions
 107:Drivers/STM32F3xx_HAL_Driver/Src/stm32f3xx_hal_dma.c ****   * @{
 108:Drivers/STM32F3xx_HAL_Driver/Src/stm32f3xx_hal_dma.c ****   */
 109:Drivers/STM32F3xx_HAL_Driver/Src/stm32f3xx_hal_dma.c **** 
 110:Drivers/STM32F3xx_HAL_Driver/Src/stm32f3xx_hal_dma.c **** /** @defgroup DMA_Exported_Functions_Group1 Initialization and de-initialization functions
 111:Drivers/STM32F3xx_HAL_Driver/Src/stm32f3xx_hal_dma.c ****  *  @brief   Initialization and de-initialization functions 
 112:Drivers/STM32F3xx_HAL_Driver/Src/stm32f3xx_hal_dma.c ****  *
 113:Drivers/STM32F3xx_HAL_Driver/Src/stm32f3xx_hal_dma.c **** @verbatim   
 114:Drivers/STM32F3xx_HAL_Driver/Src/stm32f3xx_hal_dma.c ****  ===============================================================================
 115:Drivers/STM32F3xx_HAL_Driver/Src/stm32f3xx_hal_dma.c ****              ##### Initialization and de-initialization functions  #####
 116:Drivers/STM32F3xx_HAL_Driver/Src/stm32f3xx_hal_dma.c ****  ===============================================================================  
 117:Drivers/STM32F3xx_HAL_Driver/Src/stm32f3xx_hal_dma.c ****     [..]
 118:Drivers/STM32F3xx_HAL_Driver/Src/stm32f3xx_hal_dma.c ****     This section provides functions allowing to initialize the DMA Channel source
 119:Drivers/STM32F3xx_HAL_Driver/Src/stm32f3xx_hal_dma.c ****     and destination addresses, incrementation and data sizes, transfer direction, 
 120:Drivers/STM32F3xx_HAL_Driver/Src/stm32f3xx_hal_dma.c ****     circular/normal mode selection, memory-to-memory mode selection and Channel priority value.
 121:Drivers/STM32F3xx_HAL_Driver/Src/stm32f3xx_hal_dma.c ****     [..]
 122:Drivers/STM32F3xx_HAL_Driver/Src/stm32f3xx_hal_dma.c ****     The HAL_DMA_Init() function follows the DMA configuration procedures as described in
 123:Drivers/STM32F3xx_HAL_Driver/Src/stm32f3xx_hal_dma.c ****     reference manual.  
 124:Drivers/STM32F3xx_HAL_Driver/Src/stm32f3xx_hal_dma.c **** 
 125:Drivers/STM32F3xx_HAL_Driver/Src/stm32f3xx_hal_dma.c **** @endverbatim
 126:Drivers/STM32F3xx_HAL_Driver/Src/stm32f3xx_hal_dma.c ****   * @{
 127:Drivers/STM32F3xx_HAL_Driver/Src/stm32f3xx_hal_dma.c ****   */
 128:Drivers/STM32F3xx_HAL_Driver/Src/stm32f3xx_hal_dma.c ****   
 129:Drivers/STM32F3xx_HAL_Driver/Src/stm32f3xx_hal_dma.c **** /**
 130:Drivers/STM32F3xx_HAL_Driver/Src/stm32f3xx_hal_dma.c ****   * @brief  Initialize the DMA according to the specified
 131:Drivers/STM32F3xx_HAL_Driver/Src/stm32f3xx_hal_dma.c ****   *         parameters in the DMA_InitTypeDef and initialize the associated handle.
 132:Drivers/STM32F3xx_HAL_Driver/Src/stm32f3xx_hal_dma.c ****   * @param  hdma Pointer to a DMA_HandleTypeDef structure that contains
 133:Drivers/STM32F3xx_HAL_Driver/Src/stm32f3xx_hal_dma.c ****   *               the configuration information for the specified DMA Channel.  
 134:Drivers/STM32F3xx_HAL_Driver/Src/stm32f3xx_hal_dma.c ****   * @retval HAL status
 135:Drivers/STM32F3xx_HAL_Driver/Src/stm32f3xx_hal_dma.c ****   */
 136:Drivers/STM32F3xx_HAL_Driver/Src/stm32f3xx_hal_dma.c **** HAL_StatusTypeDef HAL_DMA_Init(DMA_HandleTypeDef *hdma)
 137:Drivers/STM32F3xx_HAL_Driver/Src/stm32f3xx_hal_dma.c **** { 
 138:Drivers/STM32F3xx_HAL_Driver/Src/stm32f3xx_hal_dma.c ****   uint32_t tmp = 0U;
 139:Drivers/STM32F3xx_HAL_Driver/Src/stm32f3xx_hal_dma.c ****   
 140:Drivers/STM32F3xx_HAL_Driver/Src/stm32f3xx_hal_dma.c ****   /* Check the DMA handle allocation */
 141:Drivers/STM32F3xx_HAL_Driver/Src/stm32f3xx_hal_dma.c ****   if(NULL == hdma)
 142:Drivers/STM32F3xx_HAL_Driver/Src/stm32f3xx_hal_dma.c ****   {
 143:Drivers/STM32F3xx_HAL_Driver/Src/stm32f3xx_hal_dma.c ****     return HAL_ERROR;
 144:Drivers/STM32F3xx_HAL_Driver/Src/stm32f3xx_hal_dma.c ****   }
ARM GAS  C:\Users\cordi\AppData\Local\Temp\ccHp0T4h.s 			page 4


 145:Drivers/STM32F3xx_HAL_Driver/Src/stm32f3xx_hal_dma.c ****   
 146:Drivers/STM32F3xx_HAL_Driver/Src/stm32f3xx_hal_dma.c ****   /* Check the parameters */
 147:Drivers/STM32F3xx_HAL_Driver/Src/stm32f3xx_hal_dma.c ****   assert_param(IS_DMA_ALL_INSTANCE(hdma->Instance));
 148:Drivers/STM32F3xx_HAL_Driver/Src/stm32f3xx_hal_dma.c ****   assert_param(IS_DMA_DIRECTION(hdma->Init.Direction));
 149:Drivers/STM32F3xx_HAL_Driver/Src/stm32f3xx_hal_dma.c ****   assert_param(IS_DMA_PERIPHERAL_INC_STATE(hdma->Init.PeriphInc));
 150:Drivers/STM32F3xx_HAL_Driver/Src/stm32f3xx_hal_dma.c ****   assert_param(IS_DMA_MEMORY_INC_STATE(hdma->Init.MemInc));
 151:Drivers/STM32F3xx_HAL_Driver/Src/stm32f3xx_hal_dma.c ****   assert_param(IS_DMA_PERIPHERAL_DATA_SIZE(hdma->Init.PeriphDataAlignment));
 152:Drivers/STM32F3xx_HAL_Driver/Src/stm32f3xx_hal_dma.c ****   assert_param(IS_DMA_MEMORY_DATA_SIZE(hdma->Init.MemDataAlignment));
 153:Drivers/STM32F3xx_HAL_Driver/Src/stm32f3xx_hal_dma.c ****   assert_param(IS_DMA_MODE(hdma->Init.Mode));
 154:Drivers/STM32F3xx_HAL_Driver/Src/stm32f3xx_hal_dma.c ****   assert_param(IS_DMA_PRIORITY(hdma->Init.Priority));
 155:Drivers/STM32F3xx_HAL_Driver/Src/stm32f3xx_hal_dma.c ****   
 156:Drivers/STM32F3xx_HAL_Driver/Src/stm32f3xx_hal_dma.c ****   /* Change DMA peripheral state */
 157:Drivers/STM32F3xx_HAL_Driver/Src/stm32f3xx_hal_dma.c ****   hdma->State = HAL_DMA_STATE_BUSY;
 158:Drivers/STM32F3xx_HAL_Driver/Src/stm32f3xx_hal_dma.c **** 
 159:Drivers/STM32F3xx_HAL_Driver/Src/stm32f3xx_hal_dma.c ****   /* Get the CR register value */
 160:Drivers/STM32F3xx_HAL_Driver/Src/stm32f3xx_hal_dma.c ****   tmp = hdma->Instance->CCR;
 161:Drivers/STM32F3xx_HAL_Driver/Src/stm32f3xx_hal_dma.c ****   
 162:Drivers/STM32F3xx_HAL_Driver/Src/stm32f3xx_hal_dma.c ****   /* Clear PL, MSIZE, PSIZE, MINC, PINC, CIRC, DIR bits */
 163:Drivers/STM32F3xx_HAL_Driver/Src/stm32f3xx_hal_dma.c ****   tmp &= ((uint32_t)~(DMA_CCR_PL    | DMA_CCR_MSIZE  | DMA_CCR_PSIZE  | \
 164:Drivers/STM32F3xx_HAL_Driver/Src/stm32f3xx_hal_dma.c ****                       DMA_CCR_MINC  | DMA_CCR_PINC   | DMA_CCR_CIRC   | \
 165:Drivers/STM32F3xx_HAL_Driver/Src/stm32f3xx_hal_dma.c ****                       DMA_CCR_DIR));
 166:Drivers/STM32F3xx_HAL_Driver/Src/stm32f3xx_hal_dma.c ****   
 167:Drivers/STM32F3xx_HAL_Driver/Src/stm32f3xx_hal_dma.c ****   /* Prepare the DMA Channel configuration */
 168:Drivers/STM32F3xx_HAL_Driver/Src/stm32f3xx_hal_dma.c ****   tmp |=  hdma->Init.Direction        |
 169:Drivers/STM32F3xx_HAL_Driver/Src/stm32f3xx_hal_dma.c ****           hdma->Init.PeriphInc           | hdma->Init.MemInc           |
 170:Drivers/STM32F3xx_HAL_Driver/Src/stm32f3xx_hal_dma.c ****           hdma->Init.PeriphDataAlignment | hdma->Init.MemDataAlignment |
 171:Drivers/STM32F3xx_HAL_Driver/Src/stm32f3xx_hal_dma.c ****           hdma->Init.Mode                | hdma->Init.Priority;
 172:Drivers/STM32F3xx_HAL_Driver/Src/stm32f3xx_hal_dma.c **** 
 173:Drivers/STM32F3xx_HAL_Driver/Src/stm32f3xx_hal_dma.c ****   /* Write to DMA Channel CR register */
 174:Drivers/STM32F3xx_HAL_Driver/Src/stm32f3xx_hal_dma.c ****   hdma->Instance->CCR = tmp;  
 175:Drivers/STM32F3xx_HAL_Driver/Src/stm32f3xx_hal_dma.c ****   
 176:Drivers/STM32F3xx_HAL_Driver/Src/stm32f3xx_hal_dma.c ****   /* Initialize DmaBaseAddress and ChannelIndex parameters used 
 177:Drivers/STM32F3xx_HAL_Driver/Src/stm32f3xx_hal_dma.c ****      by HAL_DMA_IRQHandler() and HAL_DMA_PollForTransfer() */
 178:Drivers/STM32F3xx_HAL_Driver/Src/stm32f3xx_hal_dma.c ****   DMA_CalcBaseAndBitshift(hdma);
 179:Drivers/STM32F3xx_HAL_Driver/Src/stm32f3xx_hal_dma.c ****   
 180:Drivers/STM32F3xx_HAL_Driver/Src/stm32f3xx_hal_dma.c ****   /* Initialise the error code */
 181:Drivers/STM32F3xx_HAL_Driver/Src/stm32f3xx_hal_dma.c ****   hdma->ErrorCode = HAL_DMA_ERROR_NONE;
 182:Drivers/STM32F3xx_HAL_Driver/Src/stm32f3xx_hal_dma.c **** 
 183:Drivers/STM32F3xx_HAL_Driver/Src/stm32f3xx_hal_dma.c ****   /* Initialize the DMA state*/
 184:Drivers/STM32F3xx_HAL_Driver/Src/stm32f3xx_hal_dma.c ****   hdma->State = HAL_DMA_STATE_READY;
 185:Drivers/STM32F3xx_HAL_Driver/Src/stm32f3xx_hal_dma.c ****   
 186:Drivers/STM32F3xx_HAL_Driver/Src/stm32f3xx_hal_dma.c ****   /* Allocate lock resource and initialize it */
 187:Drivers/STM32F3xx_HAL_Driver/Src/stm32f3xx_hal_dma.c ****   hdma->Lock = HAL_UNLOCKED;
 188:Drivers/STM32F3xx_HAL_Driver/Src/stm32f3xx_hal_dma.c ****   
 189:Drivers/STM32F3xx_HAL_Driver/Src/stm32f3xx_hal_dma.c ****   return HAL_OK;
 190:Drivers/STM32F3xx_HAL_Driver/Src/stm32f3xx_hal_dma.c **** }  
 191:Drivers/STM32F3xx_HAL_Driver/Src/stm32f3xx_hal_dma.c ****   
 192:Drivers/STM32F3xx_HAL_Driver/Src/stm32f3xx_hal_dma.c **** /**
 193:Drivers/STM32F3xx_HAL_Driver/Src/stm32f3xx_hal_dma.c ****   * @brief  DeInitialize the DMA peripheral 
 194:Drivers/STM32F3xx_HAL_Driver/Src/stm32f3xx_hal_dma.c ****   * @param  hdma pointer to a DMA_HandleTypeDef structure that contains
 195:Drivers/STM32F3xx_HAL_Driver/Src/stm32f3xx_hal_dma.c ****   *               the configuration information for the specified DMA Channel.  
 196:Drivers/STM32F3xx_HAL_Driver/Src/stm32f3xx_hal_dma.c ****   * @retval HAL status
 197:Drivers/STM32F3xx_HAL_Driver/Src/stm32f3xx_hal_dma.c ****   */
 198:Drivers/STM32F3xx_HAL_Driver/Src/stm32f3xx_hal_dma.c **** HAL_StatusTypeDef HAL_DMA_DeInit(DMA_HandleTypeDef *hdma)
 199:Drivers/STM32F3xx_HAL_Driver/Src/stm32f3xx_hal_dma.c **** {
 200:Drivers/STM32F3xx_HAL_Driver/Src/stm32f3xx_hal_dma.c ****   /* Check the DMA handle allocation */
 201:Drivers/STM32F3xx_HAL_Driver/Src/stm32f3xx_hal_dma.c ****   if(NULL == hdma)
ARM GAS  C:\Users\cordi\AppData\Local\Temp\ccHp0T4h.s 			page 5


 202:Drivers/STM32F3xx_HAL_Driver/Src/stm32f3xx_hal_dma.c ****   {
 203:Drivers/STM32F3xx_HAL_Driver/Src/stm32f3xx_hal_dma.c ****     return HAL_ERROR;
 204:Drivers/STM32F3xx_HAL_Driver/Src/stm32f3xx_hal_dma.c ****   }
 205:Drivers/STM32F3xx_HAL_Driver/Src/stm32f3xx_hal_dma.c ****   
 206:Drivers/STM32F3xx_HAL_Driver/Src/stm32f3xx_hal_dma.c ****   /* Check the parameters */
 207:Drivers/STM32F3xx_HAL_Driver/Src/stm32f3xx_hal_dma.c ****   assert_param(IS_DMA_ALL_INSTANCE(hdma->Instance));
 208:Drivers/STM32F3xx_HAL_Driver/Src/stm32f3xx_hal_dma.c **** 
 209:Drivers/STM32F3xx_HAL_Driver/Src/stm32f3xx_hal_dma.c ****   /* Disable the selected DMA Channelx */
 210:Drivers/STM32F3xx_HAL_Driver/Src/stm32f3xx_hal_dma.c ****   hdma->Instance->CCR &= ~DMA_CCR_EN;
 211:Drivers/STM32F3xx_HAL_Driver/Src/stm32f3xx_hal_dma.c **** 
 212:Drivers/STM32F3xx_HAL_Driver/Src/stm32f3xx_hal_dma.c ****   /* Reset DMA Channel control register */
 213:Drivers/STM32F3xx_HAL_Driver/Src/stm32f3xx_hal_dma.c ****   hdma->Instance->CCR  = 0U;
 214:Drivers/STM32F3xx_HAL_Driver/Src/stm32f3xx_hal_dma.c **** 
 215:Drivers/STM32F3xx_HAL_Driver/Src/stm32f3xx_hal_dma.c ****   /* Reset DMA Channel Number of Data to Transfer register */
 216:Drivers/STM32F3xx_HAL_Driver/Src/stm32f3xx_hal_dma.c ****   hdma->Instance->CNDTR = 0U;
 217:Drivers/STM32F3xx_HAL_Driver/Src/stm32f3xx_hal_dma.c **** 
 218:Drivers/STM32F3xx_HAL_Driver/Src/stm32f3xx_hal_dma.c ****   /* Reset DMA Channel peripheral address register */
 219:Drivers/STM32F3xx_HAL_Driver/Src/stm32f3xx_hal_dma.c ****   hdma->Instance->CPAR  = 0U;
 220:Drivers/STM32F3xx_HAL_Driver/Src/stm32f3xx_hal_dma.c ****   
 221:Drivers/STM32F3xx_HAL_Driver/Src/stm32f3xx_hal_dma.c ****   /* Reset DMA Channel memory address register */
 222:Drivers/STM32F3xx_HAL_Driver/Src/stm32f3xx_hal_dma.c ****   hdma->Instance->CMAR = 0U;
 223:Drivers/STM32F3xx_HAL_Driver/Src/stm32f3xx_hal_dma.c **** 
 224:Drivers/STM32F3xx_HAL_Driver/Src/stm32f3xx_hal_dma.c ****   /* Get DMA Base Address */  
 225:Drivers/STM32F3xx_HAL_Driver/Src/stm32f3xx_hal_dma.c ****   DMA_CalcBaseAndBitshift(hdma);
 226:Drivers/STM32F3xx_HAL_Driver/Src/stm32f3xx_hal_dma.c **** 
 227:Drivers/STM32F3xx_HAL_Driver/Src/stm32f3xx_hal_dma.c ****   /* Clear all flags */
 228:Drivers/STM32F3xx_HAL_Driver/Src/stm32f3xx_hal_dma.c ****   hdma->DmaBaseAddress->IFCR = DMA_FLAG_GL1 << hdma->ChannelIndex;
 229:Drivers/STM32F3xx_HAL_Driver/Src/stm32f3xx_hal_dma.c **** 
 230:Drivers/STM32F3xx_HAL_Driver/Src/stm32f3xx_hal_dma.c ****   /* Clean callbacks */
 231:Drivers/STM32F3xx_HAL_Driver/Src/stm32f3xx_hal_dma.c ****   hdma->XferCpltCallback = NULL;
 232:Drivers/STM32F3xx_HAL_Driver/Src/stm32f3xx_hal_dma.c ****   hdma->XferHalfCpltCallback = NULL;
 233:Drivers/STM32F3xx_HAL_Driver/Src/stm32f3xx_hal_dma.c ****   hdma->XferErrorCallback = NULL;
 234:Drivers/STM32F3xx_HAL_Driver/Src/stm32f3xx_hal_dma.c ****   hdma->XferAbortCallback = NULL;
 235:Drivers/STM32F3xx_HAL_Driver/Src/stm32f3xx_hal_dma.c **** 
 236:Drivers/STM32F3xx_HAL_Driver/Src/stm32f3xx_hal_dma.c ****   /* Reset the error code */
 237:Drivers/STM32F3xx_HAL_Driver/Src/stm32f3xx_hal_dma.c ****   hdma->ErrorCode = HAL_DMA_ERROR_NONE;
 238:Drivers/STM32F3xx_HAL_Driver/Src/stm32f3xx_hal_dma.c **** 
 239:Drivers/STM32F3xx_HAL_Driver/Src/stm32f3xx_hal_dma.c ****   /* Reset the DMA state */
 240:Drivers/STM32F3xx_HAL_Driver/Src/stm32f3xx_hal_dma.c ****   hdma->State = HAL_DMA_STATE_RESET;
 241:Drivers/STM32F3xx_HAL_Driver/Src/stm32f3xx_hal_dma.c **** 
 242:Drivers/STM32F3xx_HAL_Driver/Src/stm32f3xx_hal_dma.c ****   /* Release Lock */
 243:Drivers/STM32F3xx_HAL_Driver/Src/stm32f3xx_hal_dma.c ****   __HAL_UNLOCK(hdma);
 244:Drivers/STM32F3xx_HAL_Driver/Src/stm32f3xx_hal_dma.c **** 
 245:Drivers/STM32F3xx_HAL_Driver/Src/stm32f3xx_hal_dma.c ****   return HAL_OK;
 246:Drivers/STM32F3xx_HAL_Driver/Src/stm32f3xx_hal_dma.c **** }
 247:Drivers/STM32F3xx_HAL_Driver/Src/stm32f3xx_hal_dma.c **** 
 248:Drivers/STM32F3xx_HAL_Driver/Src/stm32f3xx_hal_dma.c **** /**
 249:Drivers/STM32F3xx_HAL_Driver/Src/stm32f3xx_hal_dma.c ****   * @}
 250:Drivers/STM32F3xx_HAL_Driver/Src/stm32f3xx_hal_dma.c ****   */
 251:Drivers/STM32F3xx_HAL_Driver/Src/stm32f3xx_hal_dma.c **** 
 252:Drivers/STM32F3xx_HAL_Driver/Src/stm32f3xx_hal_dma.c **** /** @defgroup DMA_Exported_Functions_Group2 Input and Output operation functions 
 253:Drivers/STM32F3xx_HAL_Driver/Src/stm32f3xx_hal_dma.c ****  *  @brief   I/O operation functions  
 254:Drivers/STM32F3xx_HAL_Driver/Src/stm32f3xx_hal_dma.c ****  *
 255:Drivers/STM32F3xx_HAL_Driver/Src/stm32f3xx_hal_dma.c **** @verbatim   
 256:Drivers/STM32F3xx_HAL_Driver/Src/stm32f3xx_hal_dma.c ****  ===============================================================================
 257:Drivers/STM32F3xx_HAL_Driver/Src/stm32f3xx_hal_dma.c ****                       #####  IO operation functions  #####
 258:Drivers/STM32F3xx_HAL_Driver/Src/stm32f3xx_hal_dma.c ****  ===============================================================================  
ARM GAS  C:\Users\cordi\AppData\Local\Temp\ccHp0T4h.s 			page 6


 259:Drivers/STM32F3xx_HAL_Driver/Src/stm32f3xx_hal_dma.c ****     [..]  This section provides functions allowing to:
 260:Drivers/STM32F3xx_HAL_Driver/Src/stm32f3xx_hal_dma.c ****       (+) Configure the source, destination address and data length and Start DMA transfer
 261:Drivers/STM32F3xx_HAL_Driver/Src/stm32f3xx_hal_dma.c ****       (+) Configure the source, destination address and data length and 
 262:Drivers/STM32F3xx_HAL_Driver/Src/stm32f3xx_hal_dma.c ****           Start DMA transfer with interrupt
 263:Drivers/STM32F3xx_HAL_Driver/Src/stm32f3xx_hal_dma.c ****       (+) Abort DMA transfer
 264:Drivers/STM32F3xx_HAL_Driver/Src/stm32f3xx_hal_dma.c ****       (+) Poll for transfer complete
 265:Drivers/STM32F3xx_HAL_Driver/Src/stm32f3xx_hal_dma.c ****       (+) Handle DMA interrupt request  
 266:Drivers/STM32F3xx_HAL_Driver/Src/stm32f3xx_hal_dma.c **** 
 267:Drivers/STM32F3xx_HAL_Driver/Src/stm32f3xx_hal_dma.c **** @endverbatim
 268:Drivers/STM32F3xx_HAL_Driver/Src/stm32f3xx_hal_dma.c ****   * @{
 269:Drivers/STM32F3xx_HAL_Driver/Src/stm32f3xx_hal_dma.c ****   */
 270:Drivers/STM32F3xx_HAL_Driver/Src/stm32f3xx_hal_dma.c **** 
 271:Drivers/STM32F3xx_HAL_Driver/Src/stm32f3xx_hal_dma.c **** /**
 272:Drivers/STM32F3xx_HAL_Driver/Src/stm32f3xx_hal_dma.c ****   * @brief  Start the DMA Transfer.
 273:Drivers/STM32F3xx_HAL_Driver/Src/stm32f3xx_hal_dma.c ****   * @param  hdma      : pointer to a DMA_HandleTypeDef structure that contains
 274:Drivers/STM32F3xx_HAL_Driver/Src/stm32f3xx_hal_dma.c ****   *                     the configuration information for the specified DMA Channel.  
 275:Drivers/STM32F3xx_HAL_Driver/Src/stm32f3xx_hal_dma.c ****   * @param  SrcAddress The source memory Buffer address
 276:Drivers/STM32F3xx_HAL_Driver/Src/stm32f3xx_hal_dma.c ****   * @param  DstAddress The destination memory Buffer address
 277:Drivers/STM32F3xx_HAL_Driver/Src/stm32f3xx_hal_dma.c ****   * @param  DataLength The length of data to be transferred from source to destination
 278:Drivers/STM32F3xx_HAL_Driver/Src/stm32f3xx_hal_dma.c ****   * @retval HAL status
 279:Drivers/STM32F3xx_HAL_Driver/Src/stm32f3xx_hal_dma.c ****   */
 280:Drivers/STM32F3xx_HAL_Driver/Src/stm32f3xx_hal_dma.c **** HAL_StatusTypeDef HAL_DMA_Start(DMA_HandleTypeDef *hdma, uint32_t SrcAddress, uint32_t DstAddress, 
 281:Drivers/STM32F3xx_HAL_Driver/Src/stm32f3xx_hal_dma.c **** {
 282:Drivers/STM32F3xx_HAL_Driver/Src/stm32f3xx_hal_dma.c **** 	HAL_StatusTypeDef status = HAL_OK;
 283:Drivers/STM32F3xx_HAL_Driver/Src/stm32f3xx_hal_dma.c **** 
 284:Drivers/STM32F3xx_HAL_Driver/Src/stm32f3xx_hal_dma.c ****   /* Check the parameters */
 285:Drivers/STM32F3xx_HAL_Driver/Src/stm32f3xx_hal_dma.c ****   assert_param(IS_DMA_BUFFER_SIZE(DataLength));
 286:Drivers/STM32F3xx_HAL_Driver/Src/stm32f3xx_hal_dma.c ****   
 287:Drivers/STM32F3xx_HAL_Driver/Src/stm32f3xx_hal_dma.c ****   /* Process locked */
 288:Drivers/STM32F3xx_HAL_Driver/Src/stm32f3xx_hal_dma.c ****   __HAL_LOCK(hdma);
 289:Drivers/STM32F3xx_HAL_Driver/Src/stm32f3xx_hal_dma.c ****   
 290:Drivers/STM32F3xx_HAL_Driver/Src/stm32f3xx_hal_dma.c ****   if(HAL_DMA_STATE_READY == hdma->State)
 291:Drivers/STM32F3xx_HAL_Driver/Src/stm32f3xx_hal_dma.c ****   {
 292:Drivers/STM32F3xx_HAL_Driver/Src/stm32f3xx_hal_dma.c ****   	/* Change DMA peripheral state */  
 293:Drivers/STM32F3xx_HAL_Driver/Src/stm32f3xx_hal_dma.c ****   	hdma->State = HAL_DMA_STATE_BUSY;
 294:Drivers/STM32F3xx_HAL_Driver/Src/stm32f3xx_hal_dma.c ****   	
 295:Drivers/STM32F3xx_HAL_Driver/Src/stm32f3xx_hal_dma.c ****   	hdma->ErrorCode = HAL_DMA_ERROR_NONE;
 296:Drivers/STM32F3xx_HAL_Driver/Src/stm32f3xx_hal_dma.c ****   	
 297:Drivers/STM32F3xx_HAL_Driver/Src/stm32f3xx_hal_dma.c ****   	/* Disable the peripheral */
 298:Drivers/STM32F3xx_HAL_Driver/Src/stm32f3xx_hal_dma.c ****   	hdma->Instance->CCR &= ~DMA_CCR_EN;  
 299:Drivers/STM32F3xx_HAL_Driver/Src/stm32f3xx_hal_dma.c ****   	
 300:Drivers/STM32F3xx_HAL_Driver/Src/stm32f3xx_hal_dma.c ****   	/* Configure the source, destination address and the data length */
 301:Drivers/STM32F3xx_HAL_Driver/Src/stm32f3xx_hal_dma.c ****   	DMA_SetConfig(hdma, SrcAddress, DstAddress, DataLength);
 302:Drivers/STM32F3xx_HAL_Driver/Src/stm32f3xx_hal_dma.c ****   	
 303:Drivers/STM32F3xx_HAL_Driver/Src/stm32f3xx_hal_dma.c ****   	/* Enable the Peripheral */
 304:Drivers/STM32F3xx_HAL_Driver/Src/stm32f3xx_hal_dma.c ****   	hdma->Instance->CCR |= DMA_CCR_EN;  
 305:Drivers/STM32F3xx_HAL_Driver/Src/stm32f3xx_hal_dma.c ****   }
 306:Drivers/STM32F3xx_HAL_Driver/Src/stm32f3xx_hal_dma.c ****   else
 307:Drivers/STM32F3xx_HAL_Driver/Src/stm32f3xx_hal_dma.c ****   {
 308:Drivers/STM32F3xx_HAL_Driver/Src/stm32f3xx_hal_dma.c ****   	/* Process Unlocked */
 309:Drivers/STM32F3xx_HAL_Driver/Src/stm32f3xx_hal_dma.c ****   	__HAL_UNLOCK(hdma);
 310:Drivers/STM32F3xx_HAL_Driver/Src/stm32f3xx_hal_dma.c ****   	
 311:Drivers/STM32F3xx_HAL_Driver/Src/stm32f3xx_hal_dma.c ****   	/* Remain BUSY */
 312:Drivers/STM32F3xx_HAL_Driver/Src/stm32f3xx_hal_dma.c ****   	status = HAL_BUSY;
 313:Drivers/STM32F3xx_HAL_Driver/Src/stm32f3xx_hal_dma.c ****   }  
 314:Drivers/STM32F3xx_HAL_Driver/Src/stm32f3xx_hal_dma.c **** 
 315:Drivers/STM32F3xx_HAL_Driver/Src/stm32f3xx_hal_dma.c ****   return status; 
ARM GAS  C:\Users\cordi\AppData\Local\Temp\ccHp0T4h.s 			page 7


 316:Drivers/STM32F3xx_HAL_Driver/Src/stm32f3xx_hal_dma.c **** } 
 317:Drivers/STM32F3xx_HAL_Driver/Src/stm32f3xx_hal_dma.c **** 
 318:Drivers/STM32F3xx_HAL_Driver/Src/stm32f3xx_hal_dma.c **** /**
 319:Drivers/STM32F3xx_HAL_Driver/Src/stm32f3xx_hal_dma.c ****   * @brief  Start the DMA Transfer with interrupt enabled.
 320:Drivers/STM32F3xx_HAL_Driver/Src/stm32f3xx_hal_dma.c ****   * @param  hdma       pointer to a DMA_HandleTypeDef structure that contains
 321:Drivers/STM32F3xx_HAL_Driver/Src/stm32f3xx_hal_dma.c ****   *                     the configuration information for the specified DMA Channel.  
 322:Drivers/STM32F3xx_HAL_Driver/Src/stm32f3xx_hal_dma.c ****   * @param  SrcAddress The source memory Buffer address
 323:Drivers/STM32F3xx_HAL_Driver/Src/stm32f3xx_hal_dma.c ****   * @param  DstAddress The destination memory Buffer address
 324:Drivers/STM32F3xx_HAL_Driver/Src/stm32f3xx_hal_dma.c ****   * @param  DataLength The length of data to be transferred from source to destination
 325:Drivers/STM32F3xx_HAL_Driver/Src/stm32f3xx_hal_dma.c ****   * @retval HAL status
 326:Drivers/STM32F3xx_HAL_Driver/Src/stm32f3xx_hal_dma.c ****   */
 327:Drivers/STM32F3xx_HAL_Driver/Src/stm32f3xx_hal_dma.c **** HAL_StatusTypeDef HAL_DMA_Start_IT(DMA_HandleTypeDef *hdma, uint32_t SrcAddress, uint32_t DstAddres
 328:Drivers/STM32F3xx_HAL_Driver/Src/stm32f3xx_hal_dma.c **** {
 329:Drivers/STM32F3xx_HAL_Driver/Src/stm32f3xx_hal_dma.c **** 	HAL_StatusTypeDef status = HAL_OK;
 330:Drivers/STM32F3xx_HAL_Driver/Src/stm32f3xx_hal_dma.c **** 
 331:Drivers/STM32F3xx_HAL_Driver/Src/stm32f3xx_hal_dma.c ****   /* Check the parameters */
 332:Drivers/STM32F3xx_HAL_Driver/Src/stm32f3xx_hal_dma.c ****   assert_param(IS_DMA_BUFFER_SIZE(DataLength));
 333:Drivers/STM32F3xx_HAL_Driver/Src/stm32f3xx_hal_dma.c ****   
 334:Drivers/STM32F3xx_HAL_Driver/Src/stm32f3xx_hal_dma.c ****   /* Process locked */
 335:Drivers/STM32F3xx_HAL_Driver/Src/stm32f3xx_hal_dma.c ****   __HAL_LOCK(hdma);
 336:Drivers/STM32F3xx_HAL_Driver/Src/stm32f3xx_hal_dma.c ****   
 337:Drivers/STM32F3xx_HAL_Driver/Src/stm32f3xx_hal_dma.c ****   if(HAL_DMA_STATE_READY == hdma->State)
 338:Drivers/STM32F3xx_HAL_Driver/Src/stm32f3xx_hal_dma.c ****   {
 339:Drivers/STM32F3xx_HAL_Driver/Src/stm32f3xx_hal_dma.c ****   	/* Change DMA peripheral state */  
 340:Drivers/STM32F3xx_HAL_Driver/Src/stm32f3xx_hal_dma.c ****   	hdma->State = HAL_DMA_STATE_BUSY;
 341:Drivers/STM32F3xx_HAL_Driver/Src/stm32f3xx_hal_dma.c ****   	
 342:Drivers/STM32F3xx_HAL_Driver/Src/stm32f3xx_hal_dma.c ****   	hdma->ErrorCode = HAL_DMA_ERROR_NONE;
 343:Drivers/STM32F3xx_HAL_Driver/Src/stm32f3xx_hal_dma.c ****   	
 344:Drivers/STM32F3xx_HAL_Driver/Src/stm32f3xx_hal_dma.c ****   	/* Disable the peripheral */
 345:Drivers/STM32F3xx_HAL_Driver/Src/stm32f3xx_hal_dma.c ****   	hdma->Instance->CCR &= ~DMA_CCR_EN;
 346:Drivers/STM32F3xx_HAL_Driver/Src/stm32f3xx_hal_dma.c ****   	
 347:Drivers/STM32F3xx_HAL_Driver/Src/stm32f3xx_hal_dma.c ****   	/* Configure the source, destination address and the data length */  
 348:Drivers/STM32F3xx_HAL_Driver/Src/stm32f3xx_hal_dma.c ****   	DMA_SetConfig(hdma, SrcAddress, DstAddress, DataLength);
 349:Drivers/STM32F3xx_HAL_Driver/Src/stm32f3xx_hal_dma.c ****   	
 350:Drivers/STM32F3xx_HAL_Driver/Src/stm32f3xx_hal_dma.c ****   	/* Enable the transfer complete, & transfer error interrupts */
 351:Drivers/STM32F3xx_HAL_Driver/Src/stm32f3xx_hal_dma.c ****   	/* Half transfer interrupt is optional: enable it only if associated callback is available */
 352:Drivers/STM32F3xx_HAL_Driver/Src/stm32f3xx_hal_dma.c ****     if(NULL != hdma->XferHalfCpltCallback )
 353:Drivers/STM32F3xx_HAL_Driver/Src/stm32f3xx_hal_dma.c ****     {
 354:Drivers/STM32F3xx_HAL_Driver/Src/stm32f3xx_hal_dma.c ****       hdma->Instance->CCR |= (DMA_IT_TC | DMA_IT_HT | DMA_IT_TE);
 355:Drivers/STM32F3xx_HAL_Driver/Src/stm32f3xx_hal_dma.c ****     }
 356:Drivers/STM32F3xx_HAL_Driver/Src/stm32f3xx_hal_dma.c ****   	else
 357:Drivers/STM32F3xx_HAL_Driver/Src/stm32f3xx_hal_dma.c ****   	{
 358:Drivers/STM32F3xx_HAL_Driver/Src/stm32f3xx_hal_dma.c ****   		hdma->Instance->CCR |= (DMA_IT_TC | DMA_IT_TE);
 359:Drivers/STM32F3xx_HAL_Driver/Src/stm32f3xx_hal_dma.c ****   		hdma->Instance->CCR &= ~DMA_IT_HT;
 360:Drivers/STM32F3xx_HAL_Driver/Src/stm32f3xx_hal_dma.c ****   	}
 361:Drivers/STM32F3xx_HAL_Driver/Src/stm32f3xx_hal_dma.c ****   	
 362:Drivers/STM32F3xx_HAL_Driver/Src/stm32f3xx_hal_dma.c ****   	/* Enable the Peripheral */
 363:Drivers/STM32F3xx_HAL_Driver/Src/stm32f3xx_hal_dma.c ****   	hdma->Instance->CCR |= DMA_CCR_EN;
 364:Drivers/STM32F3xx_HAL_Driver/Src/stm32f3xx_hal_dma.c ****   }
 365:Drivers/STM32F3xx_HAL_Driver/Src/stm32f3xx_hal_dma.c ****   else
 366:Drivers/STM32F3xx_HAL_Driver/Src/stm32f3xx_hal_dma.c ****   {
 367:Drivers/STM32F3xx_HAL_Driver/Src/stm32f3xx_hal_dma.c ****   	/* Process Unlocked */
 368:Drivers/STM32F3xx_HAL_Driver/Src/stm32f3xx_hal_dma.c ****     __HAL_UNLOCK(hdma); 
 369:Drivers/STM32F3xx_HAL_Driver/Src/stm32f3xx_hal_dma.c ****   
 370:Drivers/STM32F3xx_HAL_Driver/Src/stm32f3xx_hal_dma.c ****     /* Remain BUSY */
 371:Drivers/STM32F3xx_HAL_Driver/Src/stm32f3xx_hal_dma.c ****     status = HAL_BUSY;
 372:Drivers/STM32F3xx_HAL_Driver/Src/stm32f3xx_hal_dma.c ****   }     
ARM GAS  C:\Users\cordi\AppData\Local\Temp\ccHp0T4h.s 			page 8


 373:Drivers/STM32F3xx_HAL_Driver/Src/stm32f3xx_hal_dma.c ****   
 374:Drivers/STM32F3xx_HAL_Driver/Src/stm32f3xx_hal_dma.c ****   return status;    
 375:Drivers/STM32F3xx_HAL_Driver/Src/stm32f3xx_hal_dma.c **** } 
 376:Drivers/STM32F3xx_HAL_Driver/Src/stm32f3xx_hal_dma.c **** 
 377:Drivers/STM32F3xx_HAL_Driver/Src/stm32f3xx_hal_dma.c **** /**
 378:Drivers/STM32F3xx_HAL_Driver/Src/stm32f3xx_hal_dma.c ****   * @brief  Abort the DMA Transfer.
 379:Drivers/STM32F3xx_HAL_Driver/Src/stm32f3xx_hal_dma.c ****   * @param  hdma  : pointer to a DMA_HandleTypeDef structure that contains
 380:Drivers/STM32F3xx_HAL_Driver/Src/stm32f3xx_hal_dma.c ****   *                 the configuration information for the specified DMA Channel.
 381:Drivers/STM32F3xx_HAL_Driver/Src/stm32f3xx_hal_dma.c ****   * @retval HAL status
 382:Drivers/STM32F3xx_HAL_Driver/Src/stm32f3xx_hal_dma.c ****   */
 383:Drivers/STM32F3xx_HAL_Driver/Src/stm32f3xx_hal_dma.c **** HAL_StatusTypeDef HAL_DMA_Abort(DMA_HandleTypeDef *hdma)
 384:Drivers/STM32F3xx_HAL_Driver/Src/stm32f3xx_hal_dma.c **** {
 385:Drivers/STM32F3xx_HAL_Driver/Src/stm32f3xx_hal_dma.c ****   if(hdma->State != HAL_DMA_STATE_BUSY)
 386:Drivers/STM32F3xx_HAL_Driver/Src/stm32f3xx_hal_dma.c ****   {
 387:Drivers/STM32F3xx_HAL_Driver/Src/stm32f3xx_hal_dma.c ****     /* no transfer ongoing */
 388:Drivers/STM32F3xx_HAL_Driver/Src/stm32f3xx_hal_dma.c ****     hdma->ErrorCode = HAL_DMA_ERROR_NO_XFER;
 389:Drivers/STM32F3xx_HAL_Driver/Src/stm32f3xx_hal_dma.c ****     
 390:Drivers/STM32F3xx_HAL_Driver/Src/stm32f3xx_hal_dma.c ****     /* Process Unlocked */
 391:Drivers/STM32F3xx_HAL_Driver/Src/stm32f3xx_hal_dma.c ****     __HAL_UNLOCK(hdma);
 392:Drivers/STM32F3xx_HAL_Driver/Src/stm32f3xx_hal_dma.c ****     
 393:Drivers/STM32F3xx_HAL_Driver/Src/stm32f3xx_hal_dma.c ****     return HAL_ERROR;
 394:Drivers/STM32F3xx_HAL_Driver/Src/stm32f3xx_hal_dma.c ****   }
 395:Drivers/STM32F3xx_HAL_Driver/Src/stm32f3xx_hal_dma.c ****   else
 396:Drivers/STM32F3xx_HAL_Driver/Src/stm32f3xx_hal_dma.c ****   {
 397:Drivers/STM32F3xx_HAL_Driver/Src/stm32f3xx_hal_dma.c ****     /* Disable DMA IT */
 398:Drivers/STM32F3xx_HAL_Driver/Src/stm32f3xx_hal_dma.c ****      hdma->Instance->CCR &= ~(DMA_IT_TC | DMA_IT_HT | DMA_IT_TE);
 399:Drivers/STM32F3xx_HAL_Driver/Src/stm32f3xx_hal_dma.c ****     
 400:Drivers/STM32F3xx_HAL_Driver/Src/stm32f3xx_hal_dma.c ****     /* Disable the channel */
 401:Drivers/STM32F3xx_HAL_Driver/Src/stm32f3xx_hal_dma.c ****     hdma->Instance->CCR &= ~DMA_CCR_EN;
 402:Drivers/STM32F3xx_HAL_Driver/Src/stm32f3xx_hal_dma.c ****     
 403:Drivers/STM32F3xx_HAL_Driver/Src/stm32f3xx_hal_dma.c ****     /* Clear all flags */
 404:Drivers/STM32F3xx_HAL_Driver/Src/stm32f3xx_hal_dma.c ****     hdma->DmaBaseAddress->IFCR = (DMA_FLAG_GL1 << hdma->ChannelIndex);
 405:Drivers/STM32F3xx_HAL_Driver/Src/stm32f3xx_hal_dma.c ****   }
 406:Drivers/STM32F3xx_HAL_Driver/Src/stm32f3xx_hal_dma.c ****   /* Change the DMA state*/
 407:Drivers/STM32F3xx_HAL_Driver/Src/stm32f3xx_hal_dma.c ****   hdma->State = HAL_DMA_STATE_READY; 
 408:Drivers/STM32F3xx_HAL_Driver/Src/stm32f3xx_hal_dma.c ****   
 409:Drivers/STM32F3xx_HAL_Driver/Src/stm32f3xx_hal_dma.c ****   /* Process Unlocked */
 410:Drivers/STM32F3xx_HAL_Driver/Src/stm32f3xx_hal_dma.c ****   __HAL_UNLOCK(hdma);
 411:Drivers/STM32F3xx_HAL_Driver/Src/stm32f3xx_hal_dma.c ****   
 412:Drivers/STM32F3xx_HAL_Driver/Src/stm32f3xx_hal_dma.c ****   return HAL_OK;
 413:Drivers/STM32F3xx_HAL_Driver/Src/stm32f3xx_hal_dma.c **** }
 414:Drivers/STM32F3xx_HAL_Driver/Src/stm32f3xx_hal_dma.c **** 
 415:Drivers/STM32F3xx_HAL_Driver/Src/stm32f3xx_hal_dma.c **** /**
 416:Drivers/STM32F3xx_HAL_Driver/Src/stm32f3xx_hal_dma.c ****   * @brief  Abort the DMA Transfer in Interrupt mode.
 417:Drivers/STM32F3xx_HAL_Driver/Src/stm32f3xx_hal_dma.c ****   * @param  hdma  : pointer to a DMA_HandleTypeDef structure that contains
 418:Drivers/STM32F3xx_HAL_Driver/Src/stm32f3xx_hal_dma.c ****   *                 the configuration information for the specified DMA Stream.
 419:Drivers/STM32F3xx_HAL_Driver/Src/stm32f3xx_hal_dma.c ****   * @retval HAL status
 420:Drivers/STM32F3xx_HAL_Driver/Src/stm32f3xx_hal_dma.c ****   */
 421:Drivers/STM32F3xx_HAL_Driver/Src/stm32f3xx_hal_dma.c **** HAL_StatusTypeDef HAL_DMA_Abort_IT(DMA_HandleTypeDef *hdma)
 422:Drivers/STM32F3xx_HAL_Driver/Src/stm32f3xx_hal_dma.c **** {  
 423:Drivers/STM32F3xx_HAL_Driver/Src/stm32f3xx_hal_dma.c ****   HAL_StatusTypeDef status = HAL_OK;
 424:Drivers/STM32F3xx_HAL_Driver/Src/stm32f3xx_hal_dma.c ****   
 425:Drivers/STM32F3xx_HAL_Driver/Src/stm32f3xx_hal_dma.c ****   if(HAL_DMA_STATE_BUSY != hdma->State)
 426:Drivers/STM32F3xx_HAL_Driver/Src/stm32f3xx_hal_dma.c ****   {
 427:Drivers/STM32F3xx_HAL_Driver/Src/stm32f3xx_hal_dma.c ****     /* no transfer ongoing */
 428:Drivers/STM32F3xx_HAL_Driver/Src/stm32f3xx_hal_dma.c ****     hdma->ErrorCode = HAL_DMA_ERROR_NO_XFER;
 429:Drivers/STM32F3xx_HAL_Driver/Src/stm32f3xx_hal_dma.c ****         
ARM GAS  C:\Users\cordi\AppData\Local\Temp\ccHp0T4h.s 			page 9


 430:Drivers/STM32F3xx_HAL_Driver/Src/stm32f3xx_hal_dma.c ****     status = HAL_ERROR;
 431:Drivers/STM32F3xx_HAL_Driver/Src/stm32f3xx_hal_dma.c ****   }
 432:Drivers/STM32F3xx_HAL_Driver/Src/stm32f3xx_hal_dma.c ****   else
 433:Drivers/STM32F3xx_HAL_Driver/Src/stm32f3xx_hal_dma.c ****   { 
 434:Drivers/STM32F3xx_HAL_Driver/Src/stm32f3xx_hal_dma.c ****   
 435:Drivers/STM32F3xx_HAL_Driver/Src/stm32f3xx_hal_dma.c ****     /* Disable DMA IT */
 436:Drivers/STM32F3xx_HAL_Driver/Src/stm32f3xx_hal_dma.c ****     hdma->Instance->CCR &= ~(DMA_IT_TC | DMA_IT_HT | DMA_IT_TE);
 437:Drivers/STM32F3xx_HAL_Driver/Src/stm32f3xx_hal_dma.c ****     
 438:Drivers/STM32F3xx_HAL_Driver/Src/stm32f3xx_hal_dma.c ****     /* Disable the channel */
 439:Drivers/STM32F3xx_HAL_Driver/Src/stm32f3xx_hal_dma.c ****     hdma->Instance->CCR &= ~DMA_CCR_EN;
 440:Drivers/STM32F3xx_HAL_Driver/Src/stm32f3xx_hal_dma.c ****     
 441:Drivers/STM32F3xx_HAL_Driver/Src/stm32f3xx_hal_dma.c ****     /* Clear all flags */
 442:Drivers/STM32F3xx_HAL_Driver/Src/stm32f3xx_hal_dma.c ****     hdma->DmaBaseAddress->IFCR = DMA_FLAG_GL1 << hdma->ChannelIndex;
 443:Drivers/STM32F3xx_HAL_Driver/Src/stm32f3xx_hal_dma.c ****     
 444:Drivers/STM32F3xx_HAL_Driver/Src/stm32f3xx_hal_dma.c ****     /* Change the DMA state */
 445:Drivers/STM32F3xx_HAL_Driver/Src/stm32f3xx_hal_dma.c ****     hdma->State = HAL_DMA_STATE_READY;
 446:Drivers/STM32F3xx_HAL_Driver/Src/stm32f3xx_hal_dma.c ****     
 447:Drivers/STM32F3xx_HAL_Driver/Src/stm32f3xx_hal_dma.c ****     /* Process Unlocked */
 448:Drivers/STM32F3xx_HAL_Driver/Src/stm32f3xx_hal_dma.c ****     __HAL_UNLOCK(hdma);
 449:Drivers/STM32F3xx_HAL_Driver/Src/stm32f3xx_hal_dma.c ****     
 450:Drivers/STM32F3xx_HAL_Driver/Src/stm32f3xx_hal_dma.c ****     /* Call User Abort callback */ 
 451:Drivers/STM32F3xx_HAL_Driver/Src/stm32f3xx_hal_dma.c ****     if(hdma->XferAbortCallback != NULL)
 452:Drivers/STM32F3xx_HAL_Driver/Src/stm32f3xx_hal_dma.c ****     {
 453:Drivers/STM32F3xx_HAL_Driver/Src/stm32f3xx_hal_dma.c ****       hdma->XferAbortCallback(hdma);
 454:Drivers/STM32F3xx_HAL_Driver/Src/stm32f3xx_hal_dma.c ****     } 
 455:Drivers/STM32F3xx_HAL_Driver/Src/stm32f3xx_hal_dma.c ****   }
 456:Drivers/STM32F3xx_HAL_Driver/Src/stm32f3xx_hal_dma.c ****   return status;
 457:Drivers/STM32F3xx_HAL_Driver/Src/stm32f3xx_hal_dma.c **** }
 458:Drivers/STM32F3xx_HAL_Driver/Src/stm32f3xx_hal_dma.c **** 
 459:Drivers/STM32F3xx_HAL_Driver/Src/stm32f3xx_hal_dma.c **** /**
 460:Drivers/STM32F3xx_HAL_Driver/Src/stm32f3xx_hal_dma.c ****   * @brief  Polling for transfer complete.
 461:Drivers/STM32F3xx_HAL_Driver/Src/stm32f3xx_hal_dma.c ****   * @param  hdma    pointer to a DMA_HandleTypeDef structure that contains
 462:Drivers/STM32F3xx_HAL_Driver/Src/stm32f3xx_hal_dma.c ****   *                  the configuration information for the specified DMA Channel.
 463:Drivers/STM32F3xx_HAL_Driver/Src/stm32f3xx_hal_dma.c ****   * @param  CompleteLevel Specifies the DMA level complete.  
 464:Drivers/STM32F3xx_HAL_Driver/Src/stm32f3xx_hal_dma.c ****   * @param  Timeout       Timeout duration.
 465:Drivers/STM32F3xx_HAL_Driver/Src/stm32f3xx_hal_dma.c ****   * @retval HAL status
 466:Drivers/STM32F3xx_HAL_Driver/Src/stm32f3xx_hal_dma.c ****   */
 467:Drivers/STM32F3xx_HAL_Driver/Src/stm32f3xx_hal_dma.c **** HAL_StatusTypeDef HAL_DMA_PollForTransfer(DMA_HandleTypeDef *hdma, uint32_t CompleteLevel, uint32_t
 468:Drivers/STM32F3xx_HAL_Driver/Src/stm32f3xx_hal_dma.c **** {
 469:Drivers/STM32F3xx_HAL_Driver/Src/stm32f3xx_hal_dma.c ****   uint32_t temp;
 470:Drivers/STM32F3xx_HAL_Driver/Src/stm32f3xx_hal_dma.c ****   uint32_t tickstart = 0U;
 471:Drivers/STM32F3xx_HAL_Driver/Src/stm32f3xx_hal_dma.c ****   
 472:Drivers/STM32F3xx_HAL_Driver/Src/stm32f3xx_hal_dma.c ****   if(HAL_DMA_STATE_BUSY != hdma->State)
 473:Drivers/STM32F3xx_HAL_Driver/Src/stm32f3xx_hal_dma.c ****   {
 474:Drivers/STM32F3xx_HAL_Driver/Src/stm32f3xx_hal_dma.c ****     /* no transfer ongoing */
 475:Drivers/STM32F3xx_HAL_Driver/Src/stm32f3xx_hal_dma.c ****     hdma->ErrorCode = HAL_DMA_ERROR_NO_XFER;
 476:Drivers/STM32F3xx_HAL_Driver/Src/stm32f3xx_hal_dma.c ****     __HAL_UNLOCK(hdma);
 477:Drivers/STM32F3xx_HAL_Driver/Src/stm32f3xx_hal_dma.c ****     return HAL_ERROR;
 478:Drivers/STM32F3xx_HAL_Driver/Src/stm32f3xx_hal_dma.c ****   }
 479:Drivers/STM32F3xx_HAL_Driver/Src/stm32f3xx_hal_dma.c ****   
 480:Drivers/STM32F3xx_HAL_Driver/Src/stm32f3xx_hal_dma.c ****   /* Polling mode not supported in circular mode */
 481:Drivers/STM32F3xx_HAL_Driver/Src/stm32f3xx_hal_dma.c ****   if (RESET != (hdma->Instance->CCR & DMA_CCR_CIRC))
 482:Drivers/STM32F3xx_HAL_Driver/Src/stm32f3xx_hal_dma.c ****   {
 483:Drivers/STM32F3xx_HAL_Driver/Src/stm32f3xx_hal_dma.c ****     hdma->ErrorCode = HAL_DMA_ERROR_NOT_SUPPORTED;
 484:Drivers/STM32F3xx_HAL_Driver/Src/stm32f3xx_hal_dma.c ****     return HAL_ERROR;
 485:Drivers/STM32F3xx_HAL_Driver/Src/stm32f3xx_hal_dma.c ****   }
 486:Drivers/STM32F3xx_HAL_Driver/Src/stm32f3xx_hal_dma.c ****   
ARM GAS  C:\Users\cordi\AppData\Local\Temp\ccHp0T4h.s 			page 10


 487:Drivers/STM32F3xx_HAL_Driver/Src/stm32f3xx_hal_dma.c ****   /* Get the level transfer complete flag */
 488:Drivers/STM32F3xx_HAL_Driver/Src/stm32f3xx_hal_dma.c ****   if(HAL_DMA_FULL_TRANSFER == CompleteLevel)
 489:Drivers/STM32F3xx_HAL_Driver/Src/stm32f3xx_hal_dma.c ****   {
 490:Drivers/STM32F3xx_HAL_Driver/Src/stm32f3xx_hal_dma.c ****     /* Transfer Complete flag */
 491:Drivers/STM32F3xx_HAL_Driver/Src/stm32f3xx_hal_dma.c ****     temp = DMA_FLAG_TC1 << hdma->ChannelIndex;
 492:Drivers/STM32F3xx_HAL_Driver/Src/stm32f3xx_hal_dma.c ****   }
 493:Drivers/STM32F3xx_HAL_Driver/Src/stm32f3xx_hal_dma.c ****   else
 494:Drivers/STM32F3xx_HAL_Driver/Src/stm32f3xx_hal_dma.c ****   {
 495:Drivers/STM32F3xx_HAL_Driver/Src/stm32f3xx_hal_dma.c ****     /* Half Transfer Complete flag */
 496:Drivers/STM32F3xx_HAL_Driver/Src/stm32f3xx_hal_dma.c ****     temp = DMA_FLAG_HT1 << hdma->ChannelIndex;
 497:Drivers/STM32F3xx_HAL_Driver/Src/stm32f3xx_hal_dma.c ****   }
 498:Drivers/STM32F3xx_HAL_Driver/Src/stm32f3xx_hal_dma.c **** 
 499:Drivers/STM32F3xx_HAL_Driver/Src/stm32f3xx_hal_dma.c ****   /* Get tick */
 500:Drivers/STM32F3xx_HAL_Driver/Src/stm32f3xx_hal_dma.c ****   tickstart = HAL_GetTick();
 501:Drivers/STM32F3xx_HAL_Driver/Src/stm32f3xx_hal_dma.c **** 
 502:Drivers/STM32F3xx_HAL_Driver/Src/stm32f3xx_hal_dma.c ****   while(RESET == (hdma->DmaBaseAddress->ISR & temp))
 503:Drivers/STM32F3xx_HAL_Driver/Src/stm32f3xx_hal_dma.c ****   {
 504:Drivers/STM32F3xx_HAL_Driver/Src/stm32f3xx_hal_dma.c ****     if(RESET != (hdma->DmaBaseAddress->ISR & (DMA_FLAG_TE1 << hdma->ChannelIndex)))
 505:Drivers/STM32F3xx_HAL_Driver/Src/stm32f3xx_hal_dma.c ****     {      
 506:Drivers/STM32F3xx_HAL_Driver/Src/stm32f3xx_hal_dma.c ****       /* When a DMA transfer error occurs */
 507:Drivers/STM32F3xx_HAL_Driver/Src/stm32f3xx_hal_dma.c ****       /* A hardware clear of its EN bits is performed */
 508:Drivers/STM32F3xx_HAL_Driver/Src/stm32f3xx_hal_dma.c ****       /* Clear all flags */
 509:Drivers/STM32F3xx_HAL_Driver/Src/stm32f3xx_hal_dma.c ****       hdma->DmaBaseAddress->IFCR = DMA_FLAG_GL1 << hdma->ChannelIndex;
 510:Drivers/STM32F3xx_HAL_Driver/Src/stm32f3xx_hal_dma.c ****       
 511:Drivers/STM32F3xx_HAL_Driver/Src/stm32f3xx_hal_dma.c ****       /* Update error code */
 512:Drivers/STM32F3xx_HAL_Driver/Src/stm32f3xx_hal_dma.c ****       hdma->ErrorCode = HAL_DMA_ERROR_TE;
 513:Drivers/STM32F3xx_HAL_Driver/Src/stm32f3xx_hal_dma.c **** 
 514:Drivers/STM32F3xx_HAL_Driver/Src/stm32f3xx_hal_dma.c ****       /* Change the DMA state */
 515:Drivers/STM32F3xx_HAL_Driver/Src/stm32f3xx_hal_dma.c ****       hdma->State= HAL_DMA_STATE_READY;       
 516:Drivers/STM32F3xx_HAL_Driver/Src/stm32f3xx_hal_dma.c ****       
 517:Drivers/STM32F3xx_HAL_Driver/Src/stm32f3xx_hal_dma.c ****       /* Process Unlocked */
 518:Drivers/STM32F3xx_HAL_Driver/Src/stm32f3xx_hal_dma.c ****       __HAL_UNLOCK(hdma);
 519:Drivers/STM32F3xx_HAL_Driver/Src/stm32f3xx_hal_dma.c ****       
 520:Drivers/STM32F3xx_HAL_Driver/Src/stm32f3xx_hal_dma.c ****       return HAL_ERROR;      
 521:Drivers/STM32F3xx_HAL_Driver/Src/stm32f3xx_hal_dma.c ****     }      
 522:Drivers/STM32F3xx_HAL_Driver/Src/stm32f3xx_hal_dma.c ****     /* Check for the Timeout */
 523:Drivers/STM32F3xx_HAL_Driver/Src/stm32f3xx_hal_dma.c ****     if(Timeout != HAL_MAX_DELAY)
 524:Drivers/STM32F3xx_HAL_Driver/Src/stm32f3xx_hal_dma.c ****     {
 525:Drivers/STM32F3xx_HAL_Driver/Src/stm32f3xx_hal_dma.c ****       if((Timeout == 0U) || ((HAL_GetTick() - tickstart) > Timeout))
 526:Drivers/STM32F3xx_HAL_Driver/Src/stm32f3xx_hal_dma.c ****       {
 527:Drivers/STM32F3xx_HAL_Driver/Src/stm32f3xx_hal_dma.c ****         /* Update error code */
 528:Drivers/STM32F3xx_HAL_Driver/Src/stm32f3xx_hal_dma.c ****         hdma->ErrorCode = HAL_DMA_ERROR_TIMEOUT;
 529:Drivers/STM32F3xx_HAL_Driver/Src/stm32f3xx_hal_dma.c ****         
 530:Drivers/STM32F3xx_HAL_Driver/Src/stm32f3xx_hal_dma.c ****         /* Change the DMA state */
 531:Drivers/STM32F3xx_HAL_Driver/Src/stm32f3xx_hal_dma.c ****         hdma->State = HAL_DMA_STATE_READY;
 532:Drivers/STM32F3xx_HAL_Driver/Src/stm32f3xx_hal_dma.c **** 
 533:Drivers/STM32F3xx_HAL_Driver/Src/stm32f3xx_hal_dma.c ****         /* Process Unlocked */
 534:Drivers/STM32F3xx_HAL_Driver/Src/stm32f3xx_hal_dma.c ****         __HAL_UNLOCK(hdma);
 535:Drivers/STM32F3xx_HAL_Driver/Src/stm32f3xx_hal_dma.c **** 
 536:Drivers/STM32F3xx_HAL_Driver/Src/stm32f3xx_hal_dma.c ****         return HAL_ERROR;
 537:Drivers/STM32F3xx_HAL_Driver/Src/stm32f3xx_hal_dma.c ****       }
 538:Drivers/STM32F3xx_HAL_Driver/Src/stm32f3xx_hal_dma.c ****     }
 539:Drivers/STM32F3xx_HAL_Driver/Src/stm32f3xx_hal_dma.c ****   }
 540:Drivers/STM32F3xx_HAL_Driver/Src/stm32f3xx_hal_dma.c **** 
 541:Drivers/STM32F3xx_HAL_Driver/Src/stm32f3xx_hal_dma.c ****   if(HAL_DMA_FULL_TRANSFER == CompleteLevel)
 542:Drivers/STM32F3xx_HAL_Driver/Src/stm32f3xx_hal_dma.c ****   {
 543:Drivers/STM32F3xx_HAL_Driver/Src/stm32f3xx_hal_dma.c ****     /* Clear the transfer complete flag */
ARM GAS  C:\Users\cordi\AppData\Local\Temp\ccHp0T4h.s 			page 11


 544:Drivers/STM32F3xx_HAL_Driver/Src/stm32f3xx_hal_dma.c ****     hdma->DmaBaseAddress->IFCR = DMA_FLAG_TC1 << hdma->ChannelIndex;
 545:Drivers/STM32F3xx_HAL_Driver/Src/stm32f3xx_hal_dma.c **** 
 546:Drivers/STM32F3xx_HAL_Driver/Src/stm32f3xx_hal_dma.c ****     /* The selected Channelx EN bit is cleared (DMA is disabled and 
 547:Drivers/STM32F3xx_HAL_Driver/Src/stm32f3xx_hal_dma.c ****     all transfers are complete) */
 548:Drivers/STM32F3xx_HAL_Driver/Src/stm32f3xx_hal_dma.c ****     hdma->State = HAL_DMA_STATE_READY;
 549:Drivers/STM32F3xx_HAL_Driver/Src/stm32f3xx_hal_dma.c ****   }
 550:Drivers/STM32F3xx_HAL_Driver/Src/stm32f3xx_hal_dma.c ****   else
 551:Drivers/STM32F3xx_HAL_Driver/Src/stm32f3xx_hal_dma.c ****   { 
 552:Drivers/STM32F3xx_HAL_Driver/Src/stm32f3xx_hal_dma.c ****     /* Clear the half transfer complete flag */
 553:Drivers/STM32F3xx_HAL_Driver/Src/stm32f3xx_hal_dma.c ****     hdma->DmaBaseAddress->IFCR = DMA_FLAG_HT1 << hdma->ChannelIndex;
 554:Drivers/STM32F3xx_HAL_Driver/Src/stm32f3xx_hal_dma.c ****   }
 555:Drivers/STM32F3xx_HAL_Driver/Src/stm32f3xx_hal_dma.c ****   
 556:Drivers/STM32F3xx_HAL_Driver/Src/stm32f3xx_hal_dma.c ****   /* Process unlocked */
 557:Drivers/STM32F3xx_HAL_Driver/Src/stm32f3xx_hal_dma.c ****   __HAL_UNLOCK(hdma);  
 558:Drivers/STM32F3xx_HAL_Driver/Src/stm32f3xx_hal_dma.c **** 
 559:Drivers/STM32F3xx_HAL_Driver/Src/stm32f3xx_hal_dma.c ****   return HAL_OK;
 560:Drivers/STM32F3xx_HAL_Driver/Src/stm32f3xx_hal_dma.c **** }
 561:Drivers/STM32F3xx_HAL_Driver/Src/stm32f3xx_hal_dma.c **** 
 562:Drivers/STM32F3xx_HAL_Driver/Src/stm32f3xx_hal_dma.c **** /**
 563:Drivers/STM32F3xx_HAL_Driver/Src/stm32f3xx_hal_dma.c ****   * @brief  Handle DMA interrupt request.
 564:Drivers/STM32F3xx_HAL_Driver/Src/stm32f3xx_hal_dma.c ****   * @param  hdma pointer to a DMA_HandleTypeDef structure that contains
 565:Drivers/STM32F3xx_HAL_Driver/Src/stm32f3xx_hal_dma.c ****   *               the configuration information for the specified DMA Channel.  
 566:Drivers/STM32F3xx_HAL_Driver/Src/stm32f3xx_hal_dma.c ****   * @retval None
 567:Drivers/STM32F3xx_HAL_Driver/Src/stm32f3xx_hal_dma.c ****   */
 568:Drivers/STM32F3xx_HAL_Driver/Src/stm32f3xx_hal_dma.c **** void HAL_DMA_IRQHandler(DMA_HandleTypeDef *hdma)
 569:Drivers/STM32F3xx_HAL_Driver/Src/stm32f3xx_hal_dma.c **** {
 570:Drivers/STM32F3xx_HAL_Driver/Src/stm32f3xx_hal_dma.c **** 	uint32_t flag_it = hdma->DmaBaseAddress->ISR;
 571:Drivers/STM32F3xx_HAL_Driver/Src/stm32f3xx_hal_dma.c ****   uint32_t source_it = hdma->Instance->CCR;
 572:Drivers/STM32F3xx_HAL_Driver/Src/stm32f3xx_hal_dma.c ****           
 573:Drivers/STM32F3xx_HAL_Driver/Src/stm32f3xx_hal_dma.c ****   /* Half Transfer Complete Interrupt management ******************************/
 574:Drivers/STM32F3xx_HAL_Driver/Src/stm32f3xx_hal_dma.c ****   if ((RESET != (flag_it & (DMA_FLAG_HT1 << hdma->ChannelIndex))) && (RESET != (source_it & DMA_IT_
 575:Drivers/STM32F3xx_HAL_Driver/Src/stm32f3xx_hal_dma.c ****   {
 576:Drivers/STM32F3xx_HAL_Driver/Src/stm32f3xx_hal_dma.c ****   	/* Disable the half transfer interrupt if the DMA mode is not CIRCULAR */
 577:Drivers/STM32F3xx_HAL_Driver/Src/stm32f3xx_hal_dma.c ****   	if((hdma->Instance->CCR & DMA_CCR_CIRC) == 0U)
 578:Drivers/STM32F3xx_HAL_Driver/Src/stm32f3xx_hal_dma.c ****   	{
 579:Drivers/STM32F3xx_HAL_Driver/Src/stm32f3xx_hal_dma.c ****   		/* Disable the half transfer interrupt */
 580:Drivers/STM32F3xx_HAL_Driver/Src/stm32f3xx_hal_dma.c ****   		hdma->Instance->CCR &= ~DMA_IT_HT;
 581:Drivers/STM32F3xx_HAL_Driver/Src/stm32f3xx_hal_dma.c ****   	}
 582:Drivers/STM32F3xx_HAL_Driver/Src/stm32f3xx_hal_dma.c ****   	
 583:Drivers/STM32F3xx_HAL_Driver/Src/stm32f3xx_hal_dma.c ****   	/* Clear the half transfer complete flag */
 584:Drivers/STM32F3xx_HAL_Driver/Src/stm32f3xx_hal_dma.c ****   	hdma->DmaBaseAddress->IFCR = DMA_FLAG_HT1 << hdma->ChannelIndex;
 585:Drivers/STM32F3xx_HAL_Driver/Src/stm32f3xx_hal_dma.c ****   	
 586:Drivers/STM32F3xx_HAL_Driver/Src/stm32f3xx_hal_dma.c ****   	/* DMA peripheral state is not updated in Half Transfer */
 587:Drivers/STM32F3xx_HAL_Driver/Src/stm32f3xx_hal_dma.c ****   	/* State is updated only in Transfer Complete case */
 588:Drivers/STM32F3xx_HAL_Driver/Src/stm32f3xx_hal_dma.c ****   	
 589:Drivers/STM32F3xx_HAL_Driver/Src/stm32f3xx_hal_dma.c ****   	if(hdma->XferHalfCpltCallback != NULL)
 590:Drivers/STM32F3xx_HAL_Driver/Src/stm32f3xx_hal_dma.c ****   	{
 591:Drivers/STM32F3xx_HAL_Driver/Src/stm32f3xx_hal_dma.c ****   		/* Half transfer callback */
 592:Drivers/STM32F3xx_HAL_Driver/Src/stm32f3xx_hal_dma.c ****   		hdma->XferHalfCpltCallback(hdma);
 593:Drivers/STM32F3xx_HAL_Driver/Src/stm32f3xx_hal_dma.c ****   	}
 594:Drivers/STM32F3xx_HAL_Driver/Src/stm32f3xx_hal_dma.c ****   }
 595:Drivers/STM32F3xx_HAL_Driver/Src/stm32f3xx_hal_dma.c ****   
 596:Drivers/STM32F3xx_HAL_Driver/Src/stm32f3xx_hal_dma.c ****   /* Transfer Complete Interrupt management ***********************************/
 597:Drivers/STM32F3xx_HAL_Driver/Src/stm32f3xx_hal_dma.c ****   else if ((RESET != (flag_it & (DMA_FLAG_TC1 << hdma->ChannelIndex))) && (RESET != (source_it & DM
 598:Drivers/STM32F3xx_HAL_Driver/Src/stm32f3xx_hal_dma.c ****   {
 599:Drivers/STM32F3xx_HAL_Driver/Src/stm32f3xx_hal_dma.c ****   	if((hdma->Instance->CCR & DMA_CCR_CIRC) == 0U)
 600:Drivers/STM32F3xx_HAL_Driver/Src/stm32f3xx_hal_dma.c ****   	{
ARM GAS  C:\Users\cordi\AppData\Local\Temp\ccHp0T4h.s 			page 12


 601:Drivers/STM32F3xx_HAL_Driver/Src/stm32f3xx_hal_dma.c ****   		/* Disable the transfer complete  & transfer error interrupts */
 602:Drivers/STM32F3xx_HAL_Driver/Src/stm32f3xx_hal_dma.c ****   		/* if the DMA mode is not CIRCULAR */
 603:Drivers/STM32F3xx_HAL_Driver/Src/stm32f3xx_hal_dma.c ****   		hdma->Instance->CCR &= ~(DMA_IT_TC | DMA_IT_TE);
 604:Drivers/STM32F3xx_HAL_Driver/Src/stm32f3xx_hal_dma.c ****   		
 605:Drivers/STM32F3xx_HAL_Driver/Src/stm32f3xx_hal_dma.c ****   		/* Change the DMA state */
 606:Drivers/STM32F3xx_HAL_Driver/Src/stm32f3xx_hal_dma.c ****   		hdma->State = HAL_DMA_STATE_READY;
 607:Drivers/STM32F3xx_HAL_Driver/Src/stm32f3xx_hal_dma.c ****   	}
 608:Drivers/STM32F3xx_HAL_Driver/Src/stm32f3xx_hal_dma.c ****   	
 609:Drivers/STM32F3xx_HAL_Driver/Src/stm32f3xx_hal_dma.c ****   	/* Clear the transfer complete flag */
 610:Drivers/STM32F3xx_HAL_Driver/Src/stm32f3xx_hal_dma.c ****   	hdma->DmaBaseAddress->IFCR = DMA_FLAG_TC1 << hdma->ChannelIndex;
 611:Drivers/STM32F3xx_HAL_Driver/Src/stm32f3xx_hal_dma.c ****   	
 612:Drivers/STM32F3xx_HAL_Driver/Src/stm32f3xx_hal_dma.c ****   	/* Process Unlocked */
 613:Drivers/STM32F3xx_HAL_Driver/Src/stm32f3xx_hal_dma.c ****   	__HAL_UNLOCK(hdma);
 614:Drivers/STM32F3xx_HAL_Driver/Src/stm32f3xx_hal_dma.c ****   	
 615:Drivers/STM32F3xx_HAL_Driver/Src/stm32f3xx_hal_dma.c ****   	if(hdma->XferCpltCallback != NULL)
 616:Drivers/STM32F3xx_HAL_Driver/Src/stm32f3xx_hal_dma.c ****   	{
 617:Drivers/STM32F3xx_HAL_Driver/Src/stm32f3xx_hal_dma.c ****   		/* Transfer complete callback */
 618:Drivers/STM32F3xx_HAL_Driver/Src/stm32f3xx_hal_dma.c ****   		hdma->XferCpltCallback(hdma);
 619:Drivers/STM32F3xx_HAL_Driver/Src/stm32f3xx_hal_dma.c ****   	}
 620:Drivers/STM32F3xx_HAL_Driver/Src/stm32f3xx_hal_dma.c ****   }
 621:Drivers/STM32F3xx_HAL_Driver/Src/stm32f3xx_hal_dma.c ****   
 622:Drivers/STM32F3xx_HAL_Driver/Src/stm32f3xx_hal_dma.c ****   /* Transfer Error Interrupt management ***************************************/
 623:Drivers/STM32F3xx_HAL_Driver/Src/stm32f3xx_hal_dma.c ****   else if (( RESET != (flag_it & (DMA_FLAG_TE1 << hdma->ChannelIndex))) && (RESET != (source_it & D
 624:Drivers/STM32F3xx_HAL_Driver/Src/stm32f3xx_hal_dma.c ****   {
 625:Drivers/STM32F3xx_HAL_Driver/Src/stm32f3xx_hal_dma.c ****   	/* When a DMA transfer error occurs */
 626:Drivers/STM32F3xx_HAL_Driver/Src/stm32f3xx_hal_dma.c ****     /* A hardware clear of its EN bits is performed */
 627:Drivers/STM32F3xx_HAL_Driver/Src/stm32f3xx_hal_dma.c ****     /* Then, disable all DMA interrupts */
 628:Drivers/STM32F3xx_HAL_Driver/Src/stm32f3xx_hal_dma.c ****     hdma->Instance->CCR &= ~(DMA_IT_TC | DMA_IT_HT | DMA_IT_TE);
 629:Drivers/STM32F3xx_HAL_Driver/Src/stm32f3xx_hal_dma.c ****     
 630:Drivers/STM32F3xx_HAL_Driver/Src/stm32f3xx_hal_dma.c ****     /* Clear all flags */
 631:Drivers/STM32F3xx_HAL_Driver/Src/stm32f3xx_hal_dma.c ****     hdma->DmaBaseAddress->IFCR = DMA_FLAG_GL1 << hdma->ChannelIndex;
 632:Drivers/STM32F3xx_HAL_Driver/Src/stm32f3xx_hal_dma.c ****     
 633:Drivers/STM32F3xx_HAL_Driver/Src/stm32f3xx_hal_dma.c ****     /* Update error code */
 634:Drivers/STM32F3xx_HAL_Driver/Src/stm32f3xx_hal_dma.c ****     hdma->ErrorCode = HAL_DMA_ERROR_TE;
 635:Drivers/STM32F3xx_HAL_Driver/Src/stm32f3xx_hal_dma.c ****     
 636:Drivers/STM32F3xx_HAL_Driver/Src/stm32f3xx_hal_dma.c ****     /* Change the DMA state */
 637:Drivers/STM32F3xx_HAL_Driver/Src/stm32f3xx_hal_dma.c ****     hdma->State = HAL_DMA_STATE_READY;    
 638:Drivers/STM32F3xx_HAL_Driver/Src/stm32f3xx_hal_dma.c ****     
 639:Drivers/STM32F3xx_HAL_Driver/Src/stm32f3xx_hal_dma.c ****     /* Process Unlocked */
 640:Drivers/STM32F3xx_HAL_Driver/Src/stm32f3xx_hal_dma.c ****     __HAL_UNLOCK(hdma); 
 641:Drivers/STM32F3xx_HAL_Driver/Src/stm32f3xx_hal_dma.c ****     
 642:Drivers/STM32F3xx_HAL_Driver/Src/stm32f3xx_hal_dma.c ****     if(hdma->XferErrorCallback != NULL)
 643:Drivers/STM32F3xx_HAL_Driver/Src/stm32f3xx_hal_dma.c ****     {
 644:Drivers/STM32F3xx_HAL_Driver/Src/stm32f3xx_hal_dma.c ****     	/* Transfer error callback */
 645:Drivers/STM32F3xx_HAL_Driver/Src/stm32f3xx_hal_dma.c ****     	hdma->XferErrorCallback(hdma);
 646:Drivers/STM32F3xx_HAL_Driver/Src/stm32f3xx_hal_dma.c ****     }
 647:Drivers/STM32F3xx_HAL_Driver/Src/stm32f3xx_hal_dma.c ****   }
 648:Drivers/STM32F3xx_HAL_Driver/Src/stm32f3xx_hal_dma.c **** }  
 649:Drivers/STM32F3xx_HAL_Driver/Src/stm32f3xx_hal_dma.c **** 
 650:Drivers/STM32F3xx_HAL_Driver/Src/stm32f3xx_hal_dma.c **** /**
 651:Drivers/STM32F3xx_HAL_Driver/Src/stm32f3xx_hal_dma.c ****   * @brief  Register callbacks
 652:Drivers/STM32F3xx_HAL_Driver/Src/stm32f3xx_hal_dma.c ****   * @param  hdma                 pointer to a DMA_HandleTypeDef structure that contains
 653:Drivers/STM32F3xx_HAL_Driver/Src/stm32f3xx_hal_dma.c ****   *                               the configuration information for the specified DMA Stream.
 654:Drivers/STM32F3xx_HAL_Driver/Src/stm32f3xx_hal_dma.c ****   * @param  CallbackID           User Callback identifier
 655:Drivers/STM32F3xx_HAL_Driver/Src/stm32f3xx_hal_dma.c ****   *                               a HAL_DMA_CallbackIDTypeDef ENUM as parameter.
 656:Drivers/STM32F3xx_HAL_Driver/Src/stm32f3xx_hal_dma.c ****   * @param  pCallback            pointer to private callback function which has pointer to 
 657:Drivers/STM32F3xx_HAL_Driver/Src/stm32f3xx_hal_dma.c ****   *                               a DMA_HandleTypeDef structure as parameter.
ARM GAS  C:\Users\cordi\AppData\Local\Temp\ccHp0T4h.s 			page 13


 658:Drivers/STM32F3xx_HAL_Driver/Src/stm32f3xx_hal_dma.c ****   * @retval HAL status
 659:Drivers/STM32F3xx_HAL_Driver/Src/stm32f3xx_hal_dma.c ****   */                          
 660:Drivers/STM32F3xx_HAL_Driver/Src/stm32f3xx_hal_dma.c **** HAL_StatusTypeDef HAL_DMA_RegisterCallback(DMA_HandleTypeDef *hdma, HAL_DMA_CallbackIDTypeDef Callb
 661:Drivers/STM32F3xx_HAL_Driver/Src/stm32f3xx_hal_dma.c **** {
 662:Drivers/STM32F3xx_HAL_Driver/Src/stm32f3xx_hal_dma.c ****   HAL_StatusTypeDef status = HAL_OK;
 663:Drivers/STM32F3xx_HAL_Driver/Src/stm32f3xx_hal_dma.c ****   
 664:Drivers/STM32F3xx_HAL_Driver/Src/stm32f3xx_hal_dma.c ****   /* Process locked */
 665:Drivers/STM32F3xx_HAL_Driver/Src/stm32f3xx_hal_dma.c ****   __HAL_LOCK(hdma);
 666:Drivers/STM32F3xx_HAL_Driver/Src/stm32f3xx_hal_dma.c ****   
 667:Drivers/STM32F3xx_HAL_Driver/Src/stm32f3xx_hal_dma.c ****   if(HAL_DMA_STATE_READY == hdma->State)
 668:Drivers/STM32F3xx_HAL_Driver/Src/stm32f3xx_hal_dma.c ****   {
 669:Drivers/STM32F3xx_HAL_Driver/Src/stm32f3xx_hal_dma.c ****     switch (CallbackID)
 670:Drivers/STM32F3xx_HAL_Driver/Src/stm32f3xx_hal_dma.c ****     {
 671:Drivers/STM32F3xx_HAL_Driver/Src/stm32f3xx_hal_dma.c ****      case  HAL_DMA_XFER_CPLT_CB_ID:
 672:Drivers/STM32F3xx_HAL_Driver/Src/stm32f3xx_hal_dma.c ****            hdma->XferCpltCallback = pCallback;
 673:Drivers/STM32F3xx_HAL_Driver/Src/stm32f3xx_hal_dma.c ****            break;
 674:Drivers/STM32F3xx_HAL_Driver/Src/stm32f3xx_hal_dma.c ****        
 675:Drivers/STM32F3xx_HAL_Driver/Src/stm32f3xx_hal_dma.c ****      case  HAL_DMA_XFER_HALFCPLT_CB_ID:
 676:Drivers/STM32F3xx_HAL_Driver/Src/stm32f3xx_hal_dma.c ****            hdma->XferHalfCpltCallback = pCallback;
 677:Drivers/STM32F3xx_HAL_Driver/Src/stm32f3xx_hal_dma.c ****            break;         
 678:Drivers/STM32F3xx_HAL_Driver/Src/stm32f3xx_hal_dma.c **** 
 679:Drivers/STM32F3xx_HAL_Driver/Src/stm32f3xx_hal_dma.c ****      case  HAL_DMA_XFER_ERROR_CB_ID:
 680:Drivers/STM32F3xx_HAL_Driver/Src/stm32f3xx_hal_dma.c ****            hdma->XferErrorCallback = pCallback;
 681:Drivers/STM32F3xx_HAL_Driver/Src/stm32f3xx_hal_dma.c ****            break;         
 682:Drivers/STM32F3xx_HAL_Driver/Src/stm32f3xx_hal_dma.c ****            
 683:Drivers/STM32F3xx_HAL_Driver/Src/stm32f3xx_hal_dma.c ****      case  HAL_DMA_XFER_ABORT_CB_ID:
 684:Drivers/STM32F3xx_HAL_Driver/Src/stm32f3xx_hal_dma.c ****            hdma->XferAbortCallback = pCallback;
 685:Drivers/STM32F3xx_HAL_Driver/Src/stm32f3xx_hal_dma.c ****            break; 
 686:Drivers/STM32F3xx_HAL_Driver/Src/stm32f3xx_hal_dma.c ****            
 687:Drivers/STM32F3xx_HAL_Driver/Src/stm32f3xx_hal_dma.c ****      default:
 688:Drivers/STM32F3xx_HAL_Driver/Src/stm32f3xx_hal_dma.c ****            status = HAL_ERROR;
 689:Drivers/STM32F3xx_HAL_Driver/Src/stm32f3xx_hal_dma.c ****            break;                                                            
 690:Drivers/STM32F3xx_HAL_Driver/Src/stm32f3xx_hal_dma.c ****     }
 691:Drivers/STM32F3xx_HAL_Driver/Src/stm32f3xx_hal_dma.c ****   }
 692:Drivers/STM32F3xx_HAL_Driver/Src/stm32f3xx_hal_dma.c ****   else
 693:Drivers/STM32F3xx_HAL_Driver/Src/stm32f3xx_hal_dma.c ****   {
 694:Drivers/STM32F3xx_HAL_Driver/Src/stm32f3xx_hal_dma.c ****     status = HAL_ERROR;
 695:Drivers/STM32F3xx_HAL_Driver/Src/stm32f3xx_hal_dma.c ****   } 
 696:Drivers/STM32F3xx_HAL_Driver/Src/stm32f3xx_hal_dma.c ****   
 697:Drivers/STM32F3xx_HAL_Driver/Src/stm32f3xx_hal_dma.c ****   /* Release Lock */
 698:Drivers/STM32F3xx_HAL_Driver/Src/stm32f3xx_hal_dma.c ****   __HAL_UNLOCK(hdma);
 699:Drivers/STM32F3xx_HAL_Driver/Src/stm32f3xx_hal_dma.c ****   
 700:Drivers/STM32F3xx_HAL_Driver/Src/stm32f3xx_hal_dma.c ****   return status;
 701:Drivers/STM32F3xx_HAL_Driver/Src/stm32f3xx_hal_dma.c **** }
 702:Drivers/STM32F3xx_HAL_Driver/Src/stm32f3xx_hal_dma.c **** 
 703:Drivers/STM32F3xx_HAL_Driver/Src/stm32f3xx_hal_dma.c **** /**
 704:Drivers/STM32F3xx_HAL_Driver/Src/stm32f3xx_hal_dma.c ****   * @brief  UnRegister callbacks
 705:Drivers/STM32F3xx_HAL_Driver/Src/stm32f3xx_hal_dma.c ****   * @param  hdma                 pointer to a DMA_HandleTypeDef structure that contains
 706:Drivers/STM32F3xx_HAL_Driver/Src/stm32f3xx_hal_dma.c ****   *                               the configuration information for the specified DMA Stream.
 707:Drivers/STM32F3xx_HAL_Driver/Src/stm32f3xx_hal_dma.c ****   * @param  CallbackID           User Callback identifier
 708:Drivers/STM32F3xx_HAL_Driver/Src/stm32f3xx_hal_dma.c ****   *                               a HAL_DMA_CallbackIDTypeDef ENUM as parameter.
 709:Drivers/STM32F3xx_HAL_Driver/Src/stm32f3xx_hal_dma.c ****   * @retval HAL status
 710:Drivers/STM32F3xx_HAL_Driver/Src/stm32f3xx_hal_dma.c ****   */              
 711:Drivers/STM32F3xx_HAL_Driver/Src/stm32f3xx_hal_dma.c **** HAL_StatusTypeDef HAL_DMA_UnRegisterCallback(DMA_HandleTypeDef *hdma, HAL_DMA_CallbackIDTypeDef Cal
 712:Drivers/STM32F3xx_HAL_Driver/Src/stm32f3xx_hal_dma.c **** {
 713:Drivers/STM32F3xx_HAL_Driver/Src/stm32f3xx_hal_dma.c ****   HAL_StatusTypeDef status = HAL_OK;
 714:Drivers/STM32F3xx_HAL_Driver/Src/stm32f3xx_hal_dma.c **** 
ARM GAS  C:\Users\cordi\AppData\Local\Temp\ccHp0T4h.s 			page 14


 715:Drivers/STM32F3xx_HAL_Driver/Src/stm32f3xx_hal_dma.c ****     /* Process locked */
 716:Drivers/STM32F3xx_HAL_Driver/Src/stm32f3xx_hal_dma.c ****   __HAL_LOCK(hdma);
 717:Drivers/STM32F3xx_HAL_Driver/Src/stm32f3xx_hal_dma.c ****   
 718:Drivers/STM32F3xx_HAL_Driver/Src/stm32f3xx_hal_dma.c ****   if(HAL_DMA_STATE_READY == hdma->State)
 719:Drivers/STM32F3xx_HAL_Driver/Src/stm32f3xx_hal_dma.c ****   {
 720:Drivers/STM32F3xx_HAL_Driver/Src/stm32f3xx_hal_dma.c ****     switch (CallbackID)
 721:Drivers/STM32F3xx_HAL_Driver/Src/stm32f3xx_hal_dma.c ****     {
 722:Drivers/STM32F3xx_HAL_Driver/Src/stm32f3xx_hal_dma.c ****      case  HAL_DMA_XFER_CPLT_CB_ID:
 723:Drivers/STM32F3xx_HAL_Driver/Src/stm32f3xx_hal_dma.c ****            hdma->XferCpltCallback = NULL;
 724:Drivers/STM32F3xx_HAL_Driver/Src/stm32f3xx_hal_dma.c ****            break;
 725:Drivers/STM32F3xx_HAL_Driver/Src/stm32f3xx_hal_dma.c ****        
 726:Drivers/STM32F3xx_HAL_Driver/Src/stm32f3xx_hal_dma.c ****      case  HAL_DMA_XFER_HALFCPLT_CB_ID:
 727:Drivers/STM32F3xx_HAL_Driver/Src/stm32f3xx_hal_dma.c ****            hdma->XferHalfCpltCallback = NULL;
 728:Drivers/STM32F3xx_HAL_Driver/Src/stm32f3xx_hal_dma.c ****            break;         
 729:Drivers/STM32F3xx_HAL_Driver/Src/stm32f3xx_hal_dma.c **** 
 730:Drivers/STM32F3xx_HAL_Driver/Src/stm32f3xx_hal_dma.c ****      case  HAL_DMA_XFER_ERROR_CB_ID:
 731:Drivers/STM32F3xx_HAL_Driver/Src/stm32f3xx_hal_dma.c ****            hdma->XferErrorCallback = NULL;
 732:Drivers/STM32F3xx_HAL_Driver/Src/stm32f3xx_hal_dma.c ****            break;         
 733:Drivers/STM32F3xx_HAL_Driver/Src/stm32f3xx_hal_dma.c ****            
 734:Drivers/STM32F3xx_HAL_Driver/Src/stm32f3xx_hal_dma.c ****      case  HAL_DMA_XFER_ABORT_CB_ID:
 735:Drivers/STM32F3xx_HAL_Driver/Src/stm32f3xx_hal_dma.c ****            hdma->XferAbortCallback = NULL;
 736:Drivers/STM32F3xx_HAL_Driver/Src/stm32f3xx_hal_dma.c ****            break; 
 737:Drivers/STM32F3xx_HAL_Driver/Src/stm32f3xx_hal_dma.c ****      
 738:Drivers/STM32F3xx_HAL_Driver/Src/stm32f3xx_hal_dma.c ****     case   HAL_DMA_XFER_ALL_CB_ID:
 739:Drivers/STM32F3xx_HAL_Driver/Src/stm32f3xx_hal_dma.c ****            hdma->XferCpltCallback = NULL;
 740:Drivers/STM32F3xx_HAL_Driver/Src/stm32f3xx_hal_dma.c ****            hdma->XferHalfCpltCallback = NULL;
 741:Drivers/STM32F3xx_HAL_Driver/Src/stm32f3xx_hal_dma.c ****            hdma->XferErrorCallback = NULL;
 742:Drivers/STM32F3xx_HAL_Driver/Src/stm32f3xx_hal_dma.c ****            hdma->XferAbortCallback = NULL;
 743:Drivers/STM32F3xx_HAL_Driver/Src/stm32f3xx_hal_dma.c ****            break; 
 744:Drivers/STM32F3xx_HAL_Driver/Src/stm32f3xx_hal_dma.c ****      
 745:Drivers/STM32F3xx_HAL_Driver/Src/stm32f3xx_hal_dma.c ****     default:
 746:Drivers/STM32F3xx_HAL_Driver/Src/stm32f3xx_hal_dma.c ****            status = HAL_ERROR;
 747:Drivers/STM32F3xx_HAL_Driver/Src/stm32f3xx_hal_dma.c ****            break;                                                            
 748:Drivers/STM32F3xx_HAL_Driver/Src/stm32f3xx_hal_dma.c ****     }
 749:Drivers/STM32F3xx_HAL_Driver/Src/stm32f3xx_hal_dma.c ****   }
 750:Drivers/STM32F3xx_HAL_Driver/Src/stm32f3xx_hal_dma.c ****   else
 751:Drivers/STM32F3xx_HAL_Driver/Src/stm32f3xx_hal_dma.c ****   {
 752:Drivers/STM32F3xx_HAL_Driver/Src/stm32f3xx_hal_dma.c ****     status = HAL_ERROR;
 753:Drivers/STM32F3xx_HAL_Driver/Src/stm32f3xx_hal_dma.c ****   } 
 754:Drivers/STM32F3xx_HAL_Driver/Src/stm32f3xx_hal_dma.c ****   
 755:Drivers/STM32F3xx_HAL_Driver/Src/stm32f3xx_hal_dma.c ****   /* Release Lock */
 756:Drivers/STM32F3xx_HAL_Driver/Src/stm32f3xx_hal_dma.c ****   __HAL_UNLOCK(hdma);
 757:Drivers/STM32F3xx_HAL_Driver/Src/stm32f3xx_hal_dma.c ****   
 758:Drivers/STM32F3xx_HAL_Driver/Src/stm32f3xx_hal_dma.c ****   return status;
 759:Drivers/STM32F3xx_HAL_Driver/Src/stm32f3xx_hal_dma.c **** }
 760:Drivers/STM32F3xx_HAL_Driver/Src/stm32f3xx_hal_dma.c **** 
 761:Drivers/STM32F3xx_HAL_Driver/Src/stm32f3xx_hal_dma.c **** /**
 762:Drivers/STM32F3xx_HAL_Driver/Src/stm32f3xx_hal_dma.c ****   * @}
 763:Drivers/STM32F3xx_HAL_Driver/Src/stm32f3xx_hal_dma.c ****   */
 764:Drivers/STM32F3xx_HAL_Driver/Src/stm32f3xx_hal_dma.c **** 
 765:Drivers/STM32F3xx_HAL_Driver/Src/stm32f3xx_hal_dma.c **** /** @defgroup DMA_Exported_Functions_Group3 Peripheral State functions
 766:Drivers/STM32F3xx_HAL_Driver/Src/stm32f3xx_hal_dma.c ****  *  @brief    Peripheral State functions 
 767:Drivers/STM32F3xx_HAL_Driver/Src/stm32f3xx_hal_dma.c ****  *
 768:Drivers/STM32F3xx_HAL_Driver/Src/stm32f3xx_hal_dma.c **** @verbatim   
 769:Drivers/STM32F3xx_HAL_Driver/Src/stm32f3xx_hal_dma.c ****  ===============================================================================
 770:Drivers/STM32F3xx_HAL_Driver/Src/stm32f3xx_hal_dma.c ****                     ##### State and Errors functions #####
 771:Drivers/STM32F3xx_HAL_Driver/Src/stm32f3xx_hal_dma.c ****  ===============================================================================  
ARM GAS  C:\Users\cordi\AppData\Local\Temp\ccHp0T4h.s 			page 15


 772:Drivers/STM32F3xx_HAL_Driver/Src/stm32f3xx_hal_dma.c ****     [..]
 773:Drivers/STM32F3xx_HAL_Driver/Src/stm32f3xx_hal_dma.c ****     This subsection provides functions allowing to
 774:Drivers/STM32F3xx_HAL_Driver/Src/stm32f3xx_hal_dma.c ****       (+) Check the DMA state
 775:Drivers/STM32F3xx_HAL_Driver/Src/stm32f3xx_hal_dma.c ****       (+) Get error code
 776:Drivers/STM32F3xx_HAL_Driver/Src/stm32f3xx_hal_dma.c **** 
 777:Drivers/STM32F3xx_HAL_Driver/Src/stm32f3xx_hal_dma.c **** @endverbatim
 778:Drivers/STM32F3xx_HAL_Driver/Src/stm32f3xx_hal_dma.c ****   * @{
 779:Drivers/STM32F3xx_HAL_Driver/Src/stm32f3xx_hal_dma.c ****   */  
 780:Drivers/STM32F3xx_HAL_Driver/Src/stm32f3xx_hal_dma.c **** 
 781:Drivers/STM32F3xx_HAL_Driver/Src/stm32f3xx_hal_dma.c **** /**
 782:Drivers/STM32F3xx_HAL_Driver/Src/stm32f3xx_hal_dma.c ****   * @brief  Returns the DMA state.
 783:Drivers/STM32F3xx_HAL_Driver/Src/stm32f3xx_hal_dma.c ****   * @param  hdma pointer to a DMA_HandleTypeDef structure that contains
 784:Drivers/STM32F3xx_HAL_Driver/Src/stm32f3xx_hal_dma.c ****   *               the configuration information for the specified DMA Channel.  
 785:Drivers/STM32F3xx_HAL_Driver/Src/stm32f3xx_hal_dma.c ****   * @retval HAL state
 786:Drivers/STM32F3xx_HAL_Driver/Src/stm32f3xx_hal_dma.c ****   */
 787:Drivers/STM32F3xx_HAL_Driver/Src/stm32f3xx_hal_dma.c **** HAL_DMA_StateTypeDef HAL_DMA_GetState(DMA_HandleTypeDef *hdma)
 788:Drivers/STM32F3xx_HAL_Driver/Src/stm32f3xx_hal_dma.c **** {
 789:Drivers/STM32F3xx_HAL_Driver/Src/stm32f3xx_hal_dma.c ****   return hdma->State;
 790:Drivers/STM32F3xx_HAL_Driver/Src/stm32f3xx_hal_dma.c **** }
 791:Drivers/STM32F3xx_HAL_Driver/Src/stm32f3xx_hal_dma.c **** 
 792:Drivers/STM32F3xx_HAL_Driver/Src/stm32f3xx_hal_dma.c **** /**
 793:Drivers/STM32F3xx_HAL_Driver/Src/stm32f3xx_hal_dma.c ****   * @brief  Return the DMA error code
 794:Drivers/STM32F3xx_HAL_Driver/Src/stm32f3xx_hal_dma.c ****   * @param  hdma pointer to a DMA_HandleTypeDef structure that contains
 795:Drivers/STM32F3xx_HAL_Driver/Src/stm32f3xx_hal_dma.c ****   *              the configuration information for the specified DMA Channel.
 796:Drivers/STM32F3xx_HAL_Driver/Src/stm32f3xx_hal_dma.c ****   * @retval DMA Error Code
 797:Drivers/STM32F3xx_HAL_Driver/Src/stm32f3xx_hal_dma.c ****   */
 798:Drivers/STM32F3xx_HAL_Driver/Src/stm32f3xx_hal_dma.c **** uint32_t HAL_DMA_GetError(DMA_HandleTypeDef *hdma)
 799:Drivers/STM32F3xx_HAL_Driver/Src/stm32f3xx_hal_dma.c **** {
 800:Drivers/STM32F3xx_HAL_Driver/Src/stm32f3xx_hal_dma.c ****   return hdma->ErrorCode;
 801:Drivers/STM32F3xx_HAL_Driver/Src/stm32f3xx_hal_dma.c **** }
 802:Drivers/STM32F3xx_HAL_Driver/Src/stm32f3xx_hal_dma.c **** 
 803:Drivers/STM32F3xx_HAL_Driver/Src/stm32f3xx_hal_dma.c **** /**
 804:Drivers/STM32F3xx_HAL_Driver/Src/stm32f3xx_hal_dma.c ****   * @}
 805:Drivers/STM32F3xx_HAL_Driver/Src/stm32f3xx_hal_dma.c ****   */
 806:Drivers/STM32F3xx_HAL_Driver/Src/stm32f3xx_hal_dma.c **** 
 807:Drivers/STM32F3xx_HAL_Driver/Src/stm32f3xx_hal_dma.c **** /**
 808:Drivers/STM32F3xx_HAL_Driver/Src/stm32f3xx_hal_dma.c ****   * @}
 809:Drivers/STM32F3xx_HAL_Driver/Src/stm32f3xx_hal_dma.c ****   */
 810:Drivers/STM32F3xx_HAL_Driver/Src/stm32f3xx_hal_dma.c **** 
 811:Drivers/STM32F3xx_HAL_Driver/Src/stm32f3xx_hal_dma.c **** /** @addtogroup DMA_Private_Functions
 812:Drivers/STM32F3xx_HAL_Driver/Src/stm32f3xx_hal_dma.c ****   * @{
 813:Drivers/STM32F3xx_HAL_Driver/Src/stm32f3xx_hal_dma.c ****   */
 814:Drivers/STM32F3xx_HAL_Driver/Src/stm32f3xx_hal_dma.c **** 
 815:Drivers/STM32F3xx_HAL_Driver/Src/stm32f3xx_hal_dma.c **** /**
 816:Drivers/STM32F3xx_HAL_Driver/Src/stm32f3xx_hal_dma.c ****   * @brief  Set the DMA Transfer parameters.
 817:Drivers/STM32F3xx_HAL_Driver/Src/stm32f3xx_hal_dma.c ****   * @param  hdma       pointer to a DMA_HandleTypeDef structure that contains
 818:Drivers/STM32F3xx_HAL_Driver/Src/stm32f3xx_hal_dma.c ****   *                     the configuration information for the specified DMA Channel.  
 819:Drivers/STM32F3xx_HAL_Driver/Src/stm32f3xx_hal_dma.c ****   * @param  SrcAddress The source memory Buffer address
 820:Drivers/STM32F3xx_HAL_Driver/Src/stm32f3xx_hal_dma.c ****   * @param  DstAddress The destination memory Buffer address
 821:Drivers/STM32F3xx_HAL_Driver/Src/stm32f3xx_hal_dma.c ****   * @param  DataLength The length of data to be transferred from source to destination
 822:Drivers/STM32F3xx_HAL_Driver/Src/stm32f3xx_hal_dma.c ****   * @retval HAL status
 823:Drivers/STM32F3xx_HAL_Driver/Src/stm32f3xx_hal_dma.c ****   */
 824:Drivers/STM32F3xx_HAL_Driver/Src/stm32f3xx_hal_dma.c **** static void DMA_SetConfig(DMA_HandleTypeDef *hdma, uint32_t SrcAddress, uint32_t DstAddress, uint32
 825:Drivers/STM32F3xx_HAL_Driver/Src/stm32f3xx_hal_dma.c **** {
  29              		.loc 1 825 1 view -0
  30              		.cfi_startproc
  31              		@ args = 0, pretend = 0, frame = 0
ARM GAS  C:\Users\cordi\AppData\Local\Temp\ccHp0T4h.s 			page 16


  32              		@ frame_needed = 0, uses_anonymous_args = 0
  33              		@ link register save eliminated.
  34              		.loc 1 825 1 is_stmt 0 view .LVU1
  35 0000 30B4     		push	{r4, r5}
  36              		.cfi_def_cfa_offset 8
  37              		.cfi_offset 4, -8
  38              		.cfi_offset 5, -4
 826:Drivers/STM32F3xx_HAL_Driver/Src/stm32f3xx_hal_dma.c **** 	/* Clear all flags */
 827:Drivers/STM32F3xx_HAL_Driver/Src/stm32f3xx_hal_dma.c ****   hdma->DmaBaseAddress->IFCR  = (DMA_FLAG_GL1 << hdma->ChannelIndex);
  39              		.loc 1 827 3 is_stmt 1 view .LVU2
  40              		.loc 1 827 47 is_stmt 0 view .LVU3
  41 0002 0124     		movs	r4, #1
  42 0004 056C     		ldr	r5, [r0, #64]
  43 0006 AC40     		lsls	r4, r4, r5
  44              		.loc 1 827 31 view .LVU4
  45 0008 C56B     		ldr	r5, [r0, #60]
  46 000a 6C60     		str	r4, [r5, #4]
 828:Drivers/STM32F3xx_HAL_Driver/Src/stm32f3xx_hal_dma.c ****   
 829:Drivers/STM32F3xx_HAL_Driver/Src/stm32f3xx_hal_dma.c ****   /* Configure DMA Channel data length */
 830:Drivers/STM32F3xx_HAL_Driver/Src/stm32f3xx_hal_dma.c ****   hdma->Instance->CNDTR = DataLength;
  47              		.loc 1 830 3 is_stmt 1 view .LVU5
  48              		.loc 1 830 7 is_stmt 0 view .LVU6
  49 000c 0468     		ldr	r4, [r0]
  50              		.loc 1 830 25 view .LVU7
  51 000e 6360     		str	r3, [r4, #4]
 831:Drivers/STM32F3xx_HAL_Driver/Src/stm32f3xx_hal_dma.c ****   
 832:Drivers/STM32F3xx_HAL_Driver/Src/stm32f3xx_hal_dma.c ****   /* Peripheral to Memory */
 833:Drivers/STM32F3xx_HAL_Driver/Src/stm32f3xx_hal_dma.c ****   if((hdma->Init.Direction) == DMA_MEMORY_TO_PERIPH)
  52              		.loc 1 833 3 is_stmt 1 view .LVU8
  53              		.loc 1 833 17 is_stmt 0 view .LVU9
  54 0010 4368     		ldr	r3, [r0, #4]
  55              	.LVL1:
  56              		.loc 1 833 5 view .LVU10
  57 0012 102B     		cmp	r3, #16
  58 0014 05D0     		beq	.L5
 834:Drivers/STM32F3xx_HAL_Driver/Src/stm32f3xx_hal_dma.c ****   {   
 835:Drivers/STM32F3xx_HAL_Driver/Src/stm32f3xx_hal_dma.c ****     /* Configure DMA Channel destination address */
 836:Drivers/STM32F3xx_HAL_Driver/Src/stm32f3xx_hal_dma.c ****     hdma->Instance->CPAR = DstAddress;
 837:Drivers/STM32F3xx_HAL_Driver/Src/stm32f3xx_hal_dma.c ****     
 838:Drivers/STM32F3xx_HAL_Driver/Src/stm32f3xx_hal_dma.c ****     /* Configure DMA Channel source address */
 839:Drivers/STM32F3xx_HAL_Driver/Src/stm32f3xx_hal_dma.c ****     hdma->Instance->CMAR = SrcAddress;
 840:Drivers/STM32F3xx_HAL_Driver/Src/stm32f3xx_hal_dma.c ****   }
 841:Drivers/STM32F3xx_HAL_Driver/Src/stm32f3xx_hal_dma.c ****   /* Memory to Peripheral */
 842:Drivers/STM32F3xx_HAL_Driver/Src/stm32f3xx_hal_dma.c ****   else
 843:Drivers/STM32F3xx_HAL_Driver/Src/stm32f3xx_hal_dma.c ****   {
 844:Drivers/STM32F3xx_HAL_Driver/Src/stm32f3xx_hal_dma.c ****     /* Configure DMA Channel source address */
 845:Drivers/STM32F3xx_HAL_Driver/Src/stm32f3xx_hal_dma.c ****     hdma->Instance->CPAR = SrcAddress;
  59              		.loc 1 845 5 is_stmt 1 view .LVU11
  60              		.loc 1 845 9 is_stmt 0 view .LVU12
  61 0016 0368     		ldr	r3, [r0]
  62              		.loc 1 845 26 view .LVU13
  63 0018 9960     		str	r1, [r3, #8]
  64              	.LVL2:
 846:Drivers/STM32F3xx_HAL_Driver/Src/stm32f3xx_hal_dma.c ****     
 847:Drivers/STM32F3xx_HAL_Driver/Src/stm32f3xx_hal_dma.c ****     /* Configure DMA Channel destination address */
 848:Drivers/STM32F3xx_HAL_Driver/Src/stm32f3xx_hal_dma.c ****     hdma->Instance->CMAR = DstAddress;
  65              		.loc 1 848 5 is_stmt 1 view .LVU14
ARM GAS  C:\Users\cordi\AppData\Local\Temp\ccHp0T4h.s 			page 17


  66              		.loc 1 848 9 is_stmt 0 view .LVU15
  67 001a 0368     		ldr	r3, [r0]
  68              		.loc 1 848 26 view .LVU16
  69 001c DA60     		str	r2, [r3, #12]
  70              	.L1:
 849:Drivers/STM32F3xx_HAL_Driver/Src/stm32f3xx_hal_dma.c ****   }
 850:Drivers/STM32F3xx_HAL_Driver/Src/stm32f3xx_hal_dma.c **** }
  71              		.loc 1 850 1 view .LVU17
  72 001e 30BC     		pop	{r4, r5}
  73              		.cfi_remember_state
  74              		.cfi_restore 5
  75              		.cfi_restore 4
  76              		.cfi_def_cfa_offset 0
  77 0020 7047     		bx	lr
  78              	.LVL3:
  79              	.L5:
  80              		.cfi_restore_state
 836:Drivers/STM32F3xx_HAL_Driver/Src/stm32f3xx_hal_dma.c ****     
  81              		.loc 1 836 5 is_stmt 1 view .LVU18
 836:Drivers/STM32F3xx_HAL_Driver/Src/stm32f3xx_hal_dma.c ****     
  82              		.loc 1 836 9 is_stmt 0 view .LVU19
  83 0022 0368     		ldr	r3, [r0]
 836:Drivers/STM32F3xx_HAL_Driver/Src/stm32f3xx_hal_dma.c ****     
  84              		.loc 1 836 26 view .LVU20
  85 0024 9A60     		str	r2, [r3, #8]
  86              	.LVL4:
 839:Drivers/STM32F3xx_HAL_Driver/Src/stm32f3xx_hal_dma.c ****   }
  87              		.loc 1 839 5 is_stmt 1 view .LVU21
 839:Drivers/STM32F3xx_HAL_Driver/Src/stm32f3xx_hal_dma.c ****   }
  88              		.loc 1 839 9 is_stmt 0 view .LVU22
  89 0026 0368     		ldr	r3, [r0]
 839:Drivers/STM32F3xx_HAL_Driver/Src/stm32f3xx_hal_dma.c ****   }
  90              		.loc 1 839 26 view .LVU23
  91 0028 D960     		str	r1, [r3, #12]
  92 002a F8E7     		b	.L1
  93              		.cfi_endproc
  94              	.LFE135:
  96              		.section	.text.DMA_CalcBaseAndBitshift,"ax",%progbits
  97              		.align	1
  98              		.syntax unified
  99              		.thumb
 100              		.thumb_func
 102              	DMA_CalcBaseAndBitshift:
 103              	.LVL5:
 104              	.LFB136:
 851:Drivers/STM32F3xx_HAL_Driver/Src/stm32f3xx_hal_dma.c **** 
 852:Drivers/STM32F3xx_HAL_Driver/Src/stm32f3xx_hal_dma.c **** /**
 853:Drivers/STM32F3xx_HAL_Driver/Src/stm32f3xx_hal_dma.c ****   * @brief  Set the DMA base address and channel index depending on DMA instance
 854:Drivers/STM32F3xx_HAL_Driver/Src/stm32f3xx_hal_dma.c ****   * @param  hdma       pointer to a DMA_HandleTypeDef structure that contains
 855:Drivers/STM32F3xx_HAL_Driver/Src/stm32f3xx_hal_dma.c ****   *                     the configuration information for the specified DMA Stream. 
 856:Drivers/STM32F3xx_HAL_Driver/Src/stm32f3xx_hal_dma.c ****   * @retval None
 857:Drivers/STM32F3xx_HAL_Driver/Src/stm32f3xx_hal_dma.c ****   */
 858:Drivers/STM32F3xx_HAL_Driver/Src/stm32f3xx_hal_dma.c **** static void DMA_CalcBaseAndBitshift(DMA_HandleTypeDef *hdma)
 859:Drivers/STM32F3xx_HAL_Driver/Src/stm32f3xx_hal_dma.c **** {
 105              		.loc 1 859 1 is_stmt 1 view -0
 106              		.cfi_startproc
 107              		@ args = 0, pretend = 0, frame = 0
ARM GAS  C:\Users\cordi\AppData\Local\Temp\ccHp0T4h.s 			page 18


 108              		@ frame_needed = 0, uses_anonymous_args = 0
 109              		@ link register save eliminated.
 860:Drivers/STM32F3xx_HAL_Driver/Src/stm32f3xx_hal_dma.c **** #if defined (DMA2)
 861:Drivers/STM32F3xx_HAL_Driver/Src/stm32f3xx_hal_dma.c ****   /* calculation of the channel index */
 862:Drivers/STM32F3xx_HAL_Driver/Src/stm32f3xx_hal_dma.c ****   if ((uint32_t)(hdma->Instance) < (uint32_t)(DMA2_Channel1))
 863:Drivers/STM32F3xx_HAL_Driver/Src/stm32f3xx_hal_dma.c ****   {
 864:Drivers/STM32F3xx_HAL_Driver/Src/stm32f3xx_hal_dma.c ****     /* DMA1 */
 865:Drivers/STM32F3xx_HAL_Driver/Src/stm32f3xx_hal_dma.c ****     hdma->ChannelIndex = (((uint32_t)hdma->Instance - (uint32_t)DMA1_Channel1) / ((uint32_t)DMA1_Ch
 866:Drivers/STM32F3xx_HAL_Driver/Src/stm32f3xx_hal_dma.c ****     hdma->DmaBaseAddress = DMA1;
 867:Drivers/STM32F3xx_HAL_Driver/Src/stm32f3xx_hal_dma.c ****   }
 868:Drivers/STM32F3xx_HAL_Driver/Src/stm32f3xx_hal_dma.c ****   else 
 869:Drivers/STM32F3xx_HAL_Driver/Src/stm32f3xx_hal_dma.c ****   {
 870:Drivers/STM32F3xx_HAL_Driver/Src/stm32f3xx_hal_dma.c ****     /* DMA2 */
 871:Drivers/STM32F3xx_HAL_Driver/Src/stm32f3xx_hal_dma.c ****     hdma->ChannelIndex = (((uint32_t)hdma->Instance - (uint32_t)DMA2_Channel1) / ((uint32_t)DMA2_Ch
 872:Drivers/STM32F3xx_HAL_Driver/Src/stm32f3xx_hal_dma.c ****     hdma->DmaBaseAddress = DMA2;
 873:Drivers/STM32F3xx_HAL_Driver/Src/stm32f3xx_hal_dma.c ****   }
 874:Drivers/STM32F3xx_HAL_Driver/Src/stm32f3xx_hal_dma.c **** #else
 875:Drivers/STM32F3xx_HAL_Driver/Src/stm32f3xx_hal_dma.c ****   /* calculation of the channel index */
 876:Drivers/STM32F3xx_HAL_Driver/Src/stm32f3xx_hal_dma.c ****   /* DMA1 */
 877:Drivers/STM32F3xx_HAL_Driver/Src/stm32f3xx_hal_dma.c ****   hdma->ChannelIndex = (((uint32_t)hdma->Instance - (uint32_t)DMA1_Channel1) / ((uint32_t)DMA1_Chan
 110              		.loc 1 877 3 view .LVU25
 111              		.loc 1 877 40 is_stmt 0 view .LVU26
 112 0000 0268     		ldr	r2, [r0]
 113              		.loc 1 877 51 view .LVU27
 114 0002 054B     		ldr	r3, .L7
 115 0004 1344     		add	r3, r3, r2
 116              		.loc 1 877 78 view .LVU28
 117 0006 054A     		ldr	r2, .L7+4
 118 0008 A2FB0323 		umull	r2, r3, r2, r3
 119 000c 1B09     		lsrs	r3, r3, #4
 120              		.loc 1 877 133 view .LVU29
 121 000e 9B00     		lsls	r3, r3, #2
 122              		.loc 1 877 22 view .LVU30
 123 0010 0364     		str	r3, [r0, #64]
 878:Drivers/STM32F3xx_HAL_Driver/Src/stm32f3xx_hal_dma.c ****   hdma->DmaBaseAddress = DMA1;
 124              		.loc 1 878 3 is_stmt 1 view .LVU31
 125              		.loc 1 878 24 is_stmt 0 view .LVU32
 126 0012 034B     		ldr	r3, .L7+8
 127 0014 C363     		str	r3, [r0, #60]
 879:Drivers/STM32F3xx_HAL_Driver/Src/stm32f3xx_hal_dma.c **** #endif
 880:Drivers/STM32F3xx_HAL_Driver/Src/stm32f3xx_hal_dma.c **** }
 128              		.loc 1 880 1 view .LVU33
 129 0016 7047     		bx	lr
 130              	.L8:
 131              		.align	2
 132              	.L7:
 133 0018 F8FFFDBF 		.word	-1073872904
 134 001c CDCCCCCC 		.word	-858993459
 135 0020 00000240 		.word	1073872896
 136              		.cfi_endproc
 137              	.LFE136:
 139              		.section	.text.HAL_DMA_Init,"ax",%progbits
 140              		.align	1
 141              		.global	HAL_DMA_Init
 142              		.syntax unified
 143              		.thumb
 144              		.thumb_func
ARM GAS  C:\Users\cordi\AppData\Local\Temp\ccHp0T4h.s 			page 19


 146              	HAL_DMA_Init:
 147              	.LVL6:
 148              	.LFB123:
 137:Drivers/STM32F3xx_HAL_Driver/Src/stm32f3xx_hal_dma.c ****   uint32_t tmp = 0U;
 149              		.loc 1 137 1 is_stmt 1 view -0
 150              		.cfi_startproc
 151              		@ args = 0, pretend = 0, frame = 0
 152              		@ frame_needed = 0, uses_anonymous_args = 0
 138:Drivers/STM32F3xx_HAL_Driver/Src/stm32f3xx_hal_dma.c ****   
 153              		.loc 1 138 3 view .LVU35
 141:Drivers/STM32F3xx_HAL_Driver/Src/stm32f3xx_hal_dma.c ****   {
 154              		.loc 1 141 3 view .LVU36
 141:Drivers/STM32F3xx_HAL_Driver/Src/stm32f3xx_hal_dma.c ****   {
 155              		.loc 1 141 5 is_stmt 0 view .LVU37
 156 0000 20B3     		cbz	r0, .L11
 137:Drivers/STM32F3xx_HAL_Driver/Src/stm32f3xx_hal_dma.c ****   uint32_t tmp = 0U;
 157              		.loc 1 137 1 view .LVU38
 158 0002 10B5     		push	{r4, lr}
 159              		.cfi_def_cfa_offset 8
 160              		.cfi_offset 4, -8
 161              		.cfi_offset 14, -4
 162 0004 0446     		mov	r4, r0
 147:Drivers/STM32F3xx_HAL_Driver/Src/stm32f3xx_hal_dma.c ****   assert_param(IS_DMA_DIRECTION(hdma->Init.Direction));
 163              		.loc 1 147 3 is_stmt 1 view .LVU39
 148:Drivers/STM32F3xx_HAL_Driver/Src/stm32f3xx_hal_dma.c ****   assert_param(IS_DMA_PERIPHERAL_INC_STATE(hdma->Init.PeriphInc));
 164              		.loc 1 148 3 view .LVU40
 149:Drivers/STM32F3xx_HAL_Driver/Src/stm32f3xx_hal_dma.c ****   assert_param(IS_DMA_MEMORY_INC_STATE(hdma->Init.MemInc));
 165              		.loc 1 149 3 view .LVU41
 150:Drivers/STM32F3xx_HAL_Driver/Src/stm32f3xx_hal_dma.c ****   assert_param(IS_DMA_PERIPHERAL_DATA_SIZE(hdma->Init.PeriphDataAlignment));
 166              		.loc 1 150 3 view .LVU42
 151:Drivers/STM32F3xx_HAL_Driver/Src/stm32f3xx_hal_dma.c ****   assert_param(IS_DMA_MEMORY_DATA_SIZE(hdma->Init.MemDataAlignment));
 167              		.loc 1 151 3 view .LVU43
 152:Drivers/STM32F3xx_HAL_Driver/Src/stm32f3xx_hal_dma.c ****   assert_param(IS_DMA_MODE(hdma->Init.Mode));
 168              		.loc 1 152 3 view .LVU44
 153:Drivers/STM32F3xx_HAL_Driver/Src/stm32f3xx_hal_dma.c ****   assert_param(IS_DMA_PRIORITY(hdma->Init.Priority));
 169              		.loc 1 153 3 view .LVU45
 154:Drivers/STM32F3xx_HAL_Driver/Src/stm32f3xx_hal_dma.c ****   
 170              		.loc 1 154 3 view .LVU46
 157:Drivers/STM32F3xx_HAL_Driver/Src/stm32f3xx_hal_dma.c **** 
 171              		.loc 1 157 3 view .LVU47
 157:Drivers/STM32F3xx_HAL_Driver/Src/stm32f3xx_hal_dma.c **** 
 172              		.loc 1 157 15 is_stmt 0 view .LVU48
 173 0006 0223     		movs	r3, #2
 174 0008 80F82130 		strb	r3, [r0, #33]
 160:Drivers/STM32F3xx_HAL_Driver/Src/stm32f3xx_hal_dma.c ****   
 175              		.loc 1 160 3 is_stmt 1 view .LVU49
 160:Drivers/STM32F3xx_HAL_Driver/Src/stm32f3xx_hal_dma.c ****   
 176              		.loc 1 160 13 is_stmt 0 view .LVU50
 177 000c 0168     		ldr	r1, [r0]
 160:Drivers/STM32F3xx_HAL_Driver/Src/stm32f3xx_hal_dma.c ****   
 178              		.loc 1 160 7 view .LVU51
 179 000e 0A68     		ldr	r2, [r1]
 180              	.LVL7:
 163:Drivers/STM32F3xx_HAL_Driver/Src/stm32f3xx_hal_dma.c ****                       DMA_CCR_MINC  | DMA_CCR_PINC   | DMA_CCR_CIRC   | \
 181              		.loc 1 163 3 is_stmt 1 view .LVU52
 163:Drivers/STM32F3xx_HAL_Driver/Src/stm32f3xx_hal_dma.c ****                       DMA_CCR_MINC  | DMA_CCR_PINC   | DMA_CCR_CIRC   | \
 182              		.loc 1 163 7 is_stmt 0 view .LVU53
ARM GAS  C:\Users\cordi\AppData\Local\Temp\ccHp0T4h.s 			page 20


 183 0010 22F47F52 		bic	r2, r2, #16320
 184              	.LVL8:
 163:Drivers/STM32F3xx_HAL_Driver/Src/stm32f3xx_hal_dma.c ****                       DMA_CCR_MINC  | DMA_CCR_PINC   | DMA_CCR_CIRC   | \
 185              		.loc 1 163 7 view .LVU54
 186 0014 22F03002 		bic	r2, r2, #48
 187              	.LVL9:
 168:Drivers/STM32F3xx_HAL_Driver/Src/stm32f3xx_hal_dma.c ****           hdma->Init.PeriphInc           | hdma->Init.MemInc           |
 188              		.loc 1 168 3 is_stmt 1 view .LVU55
 168:Drivers/STM32F3xx_HAL_Driver/Src/stm32f3xx_hal_dma.c ****           hdma->Init.PeriphInc           | hdma->Init.MemInc           |
 189              		.loc 1 168 21 is_stmt 0 view .LVU56
 190 0018 4368     		ldr	r3, [r0, #4]
 169:Drivers/STM32F3xx_HAL_Driver/Src/stm32f3xx_hal_dma.c ****           hdma->Init.PeriphDataAlignment | hdma->Init.MemDataAlignment |
 191              		.loc 1 169 21 view .LVU57
 192 001a 8068     		ldr	r0, [r0, #8]
 193              	.LVL10:
 168:Drivers/STM32F3xx_HAL_Driver/Src/stm32f3xx_hal_dma.c ****           hdma->Init.PeriphInc           | hdma->Init.MemInc           |
 194              		.loc 1 168 39 view .LVU58
 195 001c 0343     		orrs	r3, r3, r0
 169:Drivers/STM32F3xx_HAL_Driver/Src/stm32f3xx_hal_dma.c ****           hdma->Init.PeriphDataAlignment | hdma->Init.MemDataAlignment |
 196              		.loc 1 169 54 view .LVU59
 197 001e E068     		ldr	r0, [r4, #12]
 169:Drivers/STM32F3xx_HAL_Driver/Src/stm32f3xx_hal_dma.c ****           hdma->Init.PeriphDataAlignment | hdma->Init.MemDataAlignment |
 198              		.loc 1 169 42 view .LVU60
 199 0020 0343     		orrs	r3, r3, r0
 170:Drivers/STM32F3xx_HAL_Driver/Src/stm32f3xx_hal_dma.c ****           hdma->Init.Mode                | hdma->Init.Priority;
 200              		.loc 1 170 21 view .LVU61
 201 0022 2069     		ldr	r0, [r4, #16]
 169:Drivers/STM32F3xx_HAL_Driver/Src/stm32f3xx_hal_dma.c ****           hdma->Init.PeriphDataAlignment | hdma->Init.MemDataAlignment |
 202              		.loc 1 169 72 view .LVU62
 203 0024 0343     		orrs	r3, r3, r0
 170:Drivers/STM32F3xx_HAL_Driver/Src/stm32f3xx_hal_dma.c ****           hdma->Init.Mode                | hdma->Init.Priority;
 204              		.loc 1 170 54 view .LVU63
 205 0026 6069     		ldr	r0, [r4, #20]
 170:Drivers/STM32F3xx_HAL_Driver/Src/stm32f3xx_hal_dma.c ****           hdma->Init.Mode                | hdma->Init.Priority;
 206              		.loc 1 170 42 view .LVU64
 207 0028 0343     		orrs	r3, r3, r0
 171:Drivers/STM32F3xx_HAL_Driver/Src/stm32f3xx_hal_dma.c **** 
 208              		.loc 1 171 21 view .LVU65
 209 002a A069     		ldr	r0, [r4, #24]
 170:Drivers/STM32F3xx_HAL_Driver/Src/stm32f3xx_hal_dma.c ****           hdma->Init.Mode                | hdma->Init.Priority;
 210              		.loc 1 170 72 view .LVU66
 211 002c 0343     		orrs	r3, r3, r0
 171:Drivers/STM32F3xx_HAL_Driver/Src/stm32f3xx_hal_dma.c **** 
 212              		.loc 1 171 54 view .LVU67
 213 002e E069     		ldr	r0, [r4, #28]
 171:Drivers/STM32F3xx_HAL_Driver/Src/stm32f3xx_hal_dma.c **** 
 214              		.loc 1 171 42 view .LVU68
 215 0030 0343     		orrs	r3, r3, r0
 168:Drivers/STM32F3xx_HAL_Driver/Src/stm32f3xx_hal_dma.c ****           hdma->Init.PeriphInc           | hdma->Init.MemInc           |
 216              		.loc 1 168 7 view .LVU69
 217 0032 1343     		orrs	r3, r3, r2
 218              	.LVL11:
 174:Drivers/STM32F3xx_HAL_Driver/Src/stm32f3xx_hal_dma.c ****   
 219              		.loc 1 174 3 is_stmt 1 view .LVU70
 174:Drivers/STM32F3xx_HAL_Driver/Src/stm32f3xx_hal_dma.c ****   
 220              		.loc 1 174 23 is_stmt 0 view .LVU71
 221 0034 0B60     		str	r3, [r1]
ARM GAS  C:\Users\cordi\AppData\Local\Temp\ccHp0T4h.s 			page 21


 178:Drivers/STM32F3xx_HAL_Driver/Src/stm32f3xx_hal_dma.c ****   
 222              		.loc 1 178 3 is_stmt 1 view .LVU72
 223 0036 2046     		mov	r0, r4
 224 0038 FFF7FEFF 		bl	DMA_CalcBaseAndBitshift
 225              	.LVL12:
 181:Drivers/STM32F3xx_HAL_Driver/Src/stm32f3xx_hal_dma.c **** 
 226              		.loc 1 181 3 view .LVU73
 181:Drivers/STM32F3xx_HAL_Driver/Src/stm32f3xx_hal_dma.c **** 
 227              		.loc 1 181 19 is_stmt 0 view .LVU74
 228 003c 0020     		movs	r0, #0
 229 003e A063     		str	r0, [r4, #56]
 184:Drivers/STM32F3xx_HAL_Driver/Src/stm32f3xx_hal_dma.c ****   
 230              		.loc 1 184 3 is_stmt 1 view .LVU75
 184:Drivers/STM32F3xx_HAL_Driver/Src/stm32f3xx_hal_dma.c ****   
 231              		.loc 1 184 15 is_stmt 0 view .LVU76
 232 0040 0123     		movs	r3, #1
 233 0042 84F82130 		strb	r3, [r4, #33]
 187:Drivers/STM32F3xx_HAL_Driver/Src/stm32f3xx_hal_dma.c ****   
 234              		.loc 1 187 3 is_stmt 1 view .LVU77
 187:Drivers/STM32F3xx_HAL_Driver/Src/stm32f3xx_hal_dma.c ****   
 235              		.loc 1 187 14 is_stmt 0 view .LVU78
 236 0046 84F82000 		strb	r0, [r4, #32]
 189:Drivers/STM32F3xx_HAL_Driver/Src/stm32f3xx_hal_dma.c **** }  
 237              		.loc 1 189 3 is_stmt 1 view .LVU79
 190:Drivers/STM32F3xx_HAL_Driver/Src/stm32f3xx_hal_dma.c ****   
 238              		.loc 1 190 1 is_stmt 0 view .LVU80
 239 004a 10BD     		pop	{r4, pc}
 240              	.LVL13:
 241              	.L11:
 242              		.cfi_def_cfa_offset 0
 243              		.cfi_restore 4
 244              		.cfi_restore 14
 143:Drivers/STM32F3xx_HAL_Driver/Src/stm32f3xx_hal_dma.c ****   }
 245              		.loc 1 143 12 view .LVU81
 246 004c 0120     		movs	r0, #1
 247              	.LVL14:
 190:Drivers/STM32F3xx_HAL_Driver/Src/stm32f3xx_hal_dma.c ****   
 248              		.loc 1 190 1 view .LVU82
 249 004e 7047     		bx	lr
 250              		.cfi_endproc
 251              	.LFE123:
 253              		.section	.text.HAL_DMA_DeInit,"ax",%progbits
 254              		.align	1
 255              		.global	HAL_DMA_DeInit
 256              		.syntax unified
 257              		.thumb
 258              		.thumb_func
 260              	HAL_DMA_DeInit:
 261              	.LVL15:
 262              	.LFB124:
 199:Drivers/STM32F3xx_HAL_Driver/Src/stm32f3xx_hal_dma.c ****   /* Check the DMA handle allocation */
 263              		.loc 1 199 1 is_stmt 1 view -0
 264              		.cfi_startproc
 265              		@ args = 0, pretend = 0, frame = 0
 266              		@ frame_needed = 0, uses_anonymous_args = 0
 201:Drivers/STM32F3xx_HAL_Driver/Src/stm32f3xx_hal_dma.c ****   {
 267              		.loc 1 201 3 view .LVU84
ARM GAS  C:\Users\cordi\AppData\Local\Temp\ccHp0T4h.s 			page 22


 201:Drivers/STM32F3xx_HAL_Driver/Src/stm32f3xx_hal_dma.c ****   {
 268              		.loc 1 201 5 is_stmt 0 view .LVU85
 269 0000 08B3     		cbz	r0, .L18
 199:Drivers/STM32F3xx_HAL_Driver/Src/stm32f3xx_hal_dma.c ****   /* Check the DMA handle allocation */
 270              		.loc 1 199 1 view .LVU86
 271 0002 38B5     		push	{r3, r4, r5, lr}
 272              		.cfi_def_cfa_offset 16
 273              		.cfi_offset 3, -16
 274              		.cfi_offset 4, -12
 275              		.cfi_offset 5, -8
 276              		.cfi_offset 14, -4
 277 0004 0446     		mov	r4, r0
 207:Drivers/STM32F3xx_HAL_Driver/Src/stm32f3xx_hal_dma.c **** 
 278              		.loc 1 207 3 is_stmt 1 view .LVU87
 210:Drivers/STM32F3xx_HAL_Driver/Src/stm32f3xx_hal_dma.c **** 
 279              		.loc 1 210 3 view .LVU88
 210:Drivers/STM32F3xx_HAL_Driver/Src/stm32f3xx_hal_dma.c **** 
 280              		.loc 1 210 7 is_stmt 0 view .LVU89
 281 0006 0268     		ldr	r2, [r0]
 210:Drivers/STM32F3xx_HAL_Driver/Src/stm32f3xx_hal_dma.c **** 
 282              		.loc 1 210 17 view .LVU90
 283 0008 1368     		ldr	r3, [r2]
 210:Drivers/STM32F3xx_HAL_Driver/Src/stm32f3xx_hal_dma.c **** 
 284              		.loc 1 210 23 view .LVU91
 285 000a 23F00103 		bic	r3, r3, #1
 286 000e 1360     		str	r3, [r2]
 213:Drivers/STM32F3xx_HAL_Driver/Src/stm32f3xx_hal_dma.c **** 
 287              		.loc 1 213 3 is_stmt 1 view .LVU92
 213:Drivers/STM32F3xx_HAL_Driver/Src/stm32f3xx_hal_dma.c **** 
 288              		.loc 1 213 7 is_stmt 0 view .LVU93
 289 0010 0368     		ldr	r3, [r0]
 213:Drivers/STM32F3xx_HAL_Driver/Src/stm32f3xx_hal_dma.c **** 
 290              		.loc 1 213 24 view .LVU94
 291 0012 0025     		movs	r5, #0
 292 0014 1D60     		str	r5, [r3]
 216:Drivers/STM32F3xx_HAL_Driver/Src/stm32f3xx_hal_dma.c **** 
 293              		.loc 1 216 3 is_stmt 1 view .LVU95
 216:Drivers/STM32F3xx_HAL_Driver/Src/stm32f3xx_hal_dma.c **** 
 294              		.loc 1 216 7 is_stmt 0 view .LVU96
 295 0016 0368     		ldr	r3, [r0]
 216:Drivers/STM32F3xx_HAL_Driver/Src/stm32f3xx_hal_dma.c **** 
 296              		.loc 1 216 25 view .LVU97
 297 0018 5D60     		str	r5, [r3, #4]
 219:Drivers/STM32F3xx_HAL_Driver/Src/stm32f3xx_hal_dma.c ****   
 298              		.loc 1 219 3 is_stmt 1 view .LVU98
 219:Drivers/STM32F3xx_HAL_Driver/Src/stm32f3xx_hal_dma.c ****   
 299              		.loc 1 219 7 is_stmt 0 view .LVU99
 300 001a 0368     		ldr	r3, [r0]
 219:Drivers/STM32F3xx_HAL_Driver/Src/stm32f3xx_hal_dma.c ****   
 301              		.loc 1 219 25 view .LVU100
 302 001c 9D60     		str	r5, [r3, #8]
 222:Drivers/STM32F3xx_HAL_Driver/Src/stm32f3xx_hal_dma.c **** 
 303              		.loc 1 222 3 is_stmt 1 view .LVU101
 222:Drivers/STM32F3xx_HAL_Driver/Src/stm32f3xx_hal_dma.c **** 
 304              		.loc 1 222 7 is_stmt 0 view .LVU102
 305 001e 0368     		ldr	r3, [r0]
 222:Drivers/STM32F3xx_HAL_Driver/Src/stm32f3xx_hal_dma.c **** 
ARM GAS  C:\Users\cordi\AppData\Local\Temp\ccHp0T4h.s 			page 23


 306              		.loc 1 222 24 view .LVU103
 307 0020 DD60     		str	r5, [r3, #12]
 225:Drivers/STM32F3xx_HAL_Driver/Src/stm32f3xx_hal_dma.c **** 
 308              		.loc 1 225 3 is_stmt 1 view .LVU104
 309 0022 FFF7FEFF 		bl	DMA_CalcBaseAndBitshift
 310              	.LVL16:
 228:Drivers/STM32F3xx_HAL_Driver/Src/stm32f3xx_hal_dma.c **** 
 311              		.loc 1 228 3 view .LVU105
 228:Drivers/STM32F3xx_HAL_Driver/Src/stm32f3xx_hal_dma.c **** 
 312              		.loc 1 228 52 is_stmt 0 view .LVU106
 313 0026 216C     		ldr	r1, [r4, #64]
 228:Drivers/STM32F3xx_HAL_Driver/Src/stm32f3xx_hal_dma.c **** 
 314              		.loc 1 228 7 view .LVU107
 315 0028 E26B     		ldr	r2, [r4, #60]
 228:Drivers/STM32F3xx_HAL_Driver/Src/stm32f3xx_hal_dma.c **** 
 316              		.loc 1 228 45 view .LVU108
 317 002a 0123     		movs	r3, #1
 318 002c 8B40     		lsls	r3, r3, r1
 228:Drivers/STM32F3xx_HAL_Driver/Src/stm32f3xx_hal_dma.c **** 
 319              		.loc 1 228 30 view .LVU109
 320 002e 5360     		str	r3, [r2, #4]
 231:Drivers/STM32F3xx_HAL_Driver/Src/stm32f3xx_hal_dma.c ****   hdma->XferHalfCpltCallback = NULL;
 321              		.loc 1 231 3 is_stmt 1 view .LVU110
 231:Drivers/STM32F3xx_HAL_Driver/Src/stm32f3xx_hal_dma.c ****   hdma->XferHalfCpltCallback = NULL;
 322              		.loc 1 231 26 is_stmt 0 view .LVU111
 323 0030 A562     		str	r5, [r4, #40]
 232:Drivers/STM32F3xx_HAL_Driver/Src/stm32f3xx_hal_dma.c ****   hdma->XferErrorCallback = NULL;
 324              		.loc 1 232 3 is_stmt 1 view .LVU112
 232:Drivers/STM32F3xx_HAL_Driver/Src/stm32f3xx_hal_dma.c ****   hdma->XferErrorCallback = NULL;
 325              		.loc 1 232 30 is_stmt 0 view .LVU113
 326 0032 E562     		str	r5, [r4, #44]
 233:Drivers/STM32F3xx_HAL_Driver/Src/stm32f3xx_hal_dma.c ****   hdma->XferAbortCallback = NULL;
 327              		.loc 1 233 3 is_stmt 1 view .LVU114
 233:Drivers/STM32F3xx_HAL_Driver/Src/stm32f3xx_hal_dma.c ****   hdma->XferAbortCallback = NULL;
 328              		.loc 1 233 27 is_stmt 0 view .LVU115
 329 0034 2563     		str	r5, [r4, #48]
 234:Drivers/STM32F3xx_HAL_Driver/Src/stm32f3xx_hal_dma.c **** 
 330              		.loc 1 234 3 is_stmt 1 view .LVU116
 234:Drivers/STM32F3xx_HAL_Driver/Src/stm32f3xx_hal_dma.c **** 
 331              		.loc 1 234 27 is_stmt 0 view .LVU117
 332 0036 6563     		str	r5, [r4, #52]
 237:Drivers/STM32F3xx_HAL_Driver/Src/stm32f3xx_hal_dma.c **** 
 333              		.loc 1 237 3 is_stmt 1 view .LVU118
 237:Drivers/STM32F3xx_HAL_Driver/Src/stm32f3xx_hal_dma.c **** 
 334              		.loc 1 237 19 is_stmt 0 view .LVU119
 335 0038 A563     		str	r5, [r4, #56]
 240:Drivers/STM32F3xx_HAL_Driver/Src/stm32f3xx_hal_dma.c **** 
 336              		.loc 1 240 3 is_stmt 1 view .LVU120
 240:Drivers/STM32F3xx_HAL_Driver/Src/stm32f3xx_hal_dma.c **** 
 337              		.loc 1 240 15 is_stmt 0 view .LVU121
 338 003a 84F82150 		strb	r5, [r4, #33]
 243:Drivers/STM32F3xx_HAL_Driver/Src/stm32f3xx_hal_dma.c **** 
 339              		.loc 1 243 3 is_stmt 1 view .LVU122
 243:Drivers/STM32F3xx_HAL_Driver/Src/stm32f3xx_hal_dma.c **** 
 340              		.loc 1 243 3 view .LVU123
 341 003e 84F82050 		strb	r5, [r4, #32]
 243:Drivers/STM32F3xx_HAL_Driver/Src/stm32f3xx_hal_dma.c **** 
ARM GAS  C:\Users\cordi\AppData\Local\Temp\ccHp0T4h.s 			page 24


 342              		.loc 1 243 3 view .LVU124
 245:Drivers/STM32F3xx_HAL_Driver/Src/stm32f3xx_hal_dma.c **** }
 343              		.loc 1 245 3 view .LVU125
 245:Drivers/STM32F3xx_HAL_Driver/Src/stm32f3xx_hal_dma.c **** }
 344              		.loc 1 245 10 is_stmt 0 view .LVU126
 345 0042 2846     		mov	r0, r5
 246:Drivers/STM32F3xx_HAL_Driver/Src/stm32f3xx_hal_dma.c **** 
 346              		.loc 1 246 1 view .LVU127
 347 0044 38BD     		pop	{r3, r4, r5, pc}
 348              	.LVL17:
 349              	.L18:
 350              		.cfi_def_cfa_offset 0
 351              		.cfi_restore 3
 352              		.cfi_restore 4
 353              		.cfi_restore 5
 354              		.cfi_restore 14
 203:Drivers/STM32F3xx_HAL_Driver/Src/stm32f3xx_hal_dma.c ****   }
 355              		.loc 1 203 12 view .LVU128
 356 0046 0120     		movs	r0, #1
 357              	.LVL18:
 246:Drivers/STM32F3xx_HAL_Driver/Src/stm32f3xx_hal_dma.c **** 
 358              		.loc 1 246 1 view .LVU129
 359 0048 7047     		bx	lr
 360              		.cfi_endproc
 361              	.LFE124:
 363              		.section	.text.HAL_DMA_Start,"ax",%progbits
 364              		.align	1
 365              		.global	HAL_DMA_Start
 366              		.syntax unified
 367              		.thumb
 368              		.thumb_func
 370              	HAL_DMA_Start:
 371              	.LVL19:
 372              	.LFB125:
 281:Drivers/STM32F3xx_HAL_Driver/Src/stm32f3xx_hal_dma.c **** 	HAL_StatusTypeDef status = HAL_OK;
 373              		.loc 1 281 1 is_stmt 1 view -0
 374              		.cfi_startproc
 375              		@ args = 0, pretend = 0, frame = 0
 376              		@ frame_needed = 0, uses_anonymous_args = 0
 281:Drivers/STM32F3xx_HAL_Driver/Src/stm32f3xx_hal_dma.c **** 	HAL_StatusTypeDef status = HAL_OK;
 377              		.loc 1 281 1 is_stmt 0 view .LVU131
 378 0000 70B5     		push	{r4, r5, r6, lr}
 379              		.cfi_def_cfa_offset 16
 380              		.cfi_offset 4, -16
 381              		.cfi_offset 5, -12
 382              		.cfi_offset 6, -8
 383              		.cfi_offset 14, -4
 384 0002 0446     		mov	r4, r0
 282:Drivers/STM32F3xx_HAL_Driver/Src/stm32f3xx_hal_dma.c **** 
 385              		.loc 1 282 2 is_stmt 1 view .LVU132
 386              	.LVL20:
 285:Drivers/STM32F3xx_HAL_Driver/Src/stm32f3xx_hal_dma.c ****   
 387              		.loc 1 285 3 view .LVU133
 288:Drivers/STM32F3xx_HAL_Driver/Src/stm32f3xx_hal_dma.c ****   
 388              		.loc 1 288 3 view .LVU134
 288:Drivers/STM32F3xx_HAL_Driver/Src/stm32f3xx_hal_dma.c ****   
 389              		.loc 1 288 3 view .LVU135
ARM GAS  C:\Users\cordi\AppData\Local\Temp\ccHp0T4h.s 			page 25


 390 0004 90F82000 		ldrb	r0, [r0, #32]	@ zero_extendqisi2
 391              	.LVL21:
 288:Drivers/STM32F3xx_HAL_Driver/Src/stm32f3xx_hal_dma.c ****   
 392              		.loc 1 288 3 is_stmt 0 view .LVU136
 393 0008 0128     		cmp	r0, #1
 394 000a 1FD0     		beq	.L26
 288:Drivers/STM32F3xx_HAL_Driver/Src/stm32f3xx_hal_dma.c ****   
 395              		.loc 1 288 3 is_stmt 1 discriminator 2 view .LVU137
 396 000c 0120     		movs	r0, #1
 397 000e 84F82000 		strb	r0, [r4, #32]
 288:Drivers/STM32F3xx_HAL_Driver/Src/stm32f3xx_hal_dma.c ****   
 398              		.loc 1 288 3 discriminator 2 view .LVU138
 290:Drivers/STM32F3xx_HAL_Driver/Src/stm32f3xx_hal_dma.c ****   {
 399              		.loc 1 290 3 discriminator 2 view .LVU139
 290:Drivers/STM32F3xx_HAL_Driver/Src/stm32f3xx_hal_dma.c ****   {
 400              		.loc 1 290 33 is_stmt 0 discriminator 2 view .LVU140
 401 0012 94F82100 		ldrb	r0, [r4, #33]	@ zero_extendqisi2
 290:Drivers/STM32F3xx_HAL_Driver/Src/stm32f3xx_hal_dma.c ****   {
 402              		.loc 1 290 5 discriminator 2 view .LVU141
 403 0016 0128     		cmp	r0, #1
 404 0018 04D0     		beq	.L28
 309:Drivers/STM32F3xx_HAL_Driver/Src/stm32f3xx_hal_dma.c ****   	
 405              		.loc 1 309 4 is_stmt 1 view .LVU142
 309:Drivers/STM32F3xx_HAL_Driver/Src/stm32f3xx_hal_dma.c ****   	
 406              		.loc 1 309 4 view .LVU143
 407 001a 0023     		movs	r3, #0
 408              	.LVL22:
 309:Drivers/STM32F3xx_HAL_Driver/Src/stm32f3xx_hal_dma.c ****   	
 409              		.loc 1 309 4 is_stmt 0 view .LVU144
 410 001c 84F82030 		strb	r3, [r4, #32]
 309:Drivers/STM32F3xx_HAL_Driver/Src/stm32f3xx_hal_dma.c ****   	
 411              		.loc 1 309 4 is_stmt 1 view .LVU145
 312:Drivers/STM32F3xx_HAL_Driver/Src/stm32f3xx_hal_dma.c ****   }  
 412              		.loc 1 312 4 view .LVU146
 413              	.LVL23:
 312:Drivers/STM32F3xx_HAL_Driver/Src/stm32f3xx_hal_dma.c ****   }  
 414              		.loc 1 312 11 is_stmt 0 view .LVU147
 415 0020 0220     		movs	r0, #2
 416              	.LVL24:
 417              	.L24:
 316:Drivers/STM32F3xx_HAL_Driver/Src/stm32f3xx_hal_dma.c **** 
 418              		.loc 1 316 1 view .LVU148
 419 0022 70BD     		pop	{r4, r5, r6, pc}
 420              	.LVL25:
 421              	.L28:
 293:Drivers/STM32F3xx_HAL_Driver/Src/stm32f3xx_hal_dma.c ****   	
 422              		.loc 1 293 4 is_stmt 1 view .LVU149
 293:Drivers/STM32F3xx_HAL_Driver/Src/stm32f3xx_hal_dma.c ****   	
 423              		.loc 1 293 16 is_stmt 0 view .LVU150
 424 0024 0220     		movs	r0, #2
 425 0026 84F82100 		strb	r0, [r4, #33]
 295:Drivers/STM32F3xx_HAL_Driver/Src/stm32f3xx_hal_dma.c ****   	
 426              		.loc 1 295 4 is_stmt 1 view .LVU151
 295:Drivers/STM32F3xx_HAL_Driver/Src/stm32f3xx_hal_dma.c ****   	
 427              		.loc 1 295 20 is_stmt 0 view .LVU152
 428 002a 0025     		movs	r5, #0
 429 002c A563     		str	r5, [r4, #56]
ARM GAS  C:\Users\cordi\AppData\Local\Temp\ccHp0T4h.s 			page 26


 298:Drivers/STM32F3xx_HAL_Driver/Src/stm32f3xx_hal_dma.c ****   	
 430              		.loc 1 298 4 is_stmt 1 view .LVU153
 298:Drivers/STM32F3xx_HAL_Driver/Src/stm32f3xx_hal_dma.c ****   	
 431              		.loc 1 298 8 is_stmt 0 view .LVU154
 432 002e 2668     		ldr	r6, [r4]
 298:Drivers/STM32F3xx_HAL_Driver/Src/stm32f3xx_hal_dma.c ****   	
 433              		.loc 1 298 18 view .LVU155
 434 0030 3068     		ldr	r0, [r6]
 298:Drivers/STM32F3xx_HAL_Driver/Src/stm32f3xx_hal_dma.c ****   	
 435              		.loc 1 298 24 view .LVU156
 436 0032 20F00100 		bic	r0, r0, #1
 437 0036 3060     		str	r0, [r6]
 301:Drivers/STM32F3xx_HAL_Driver/Src/stm32f3xx_hal_dma.c ****   	
 438              		.loc 1 301 4 is_stmt 1 view .LVU157
 439 0038 2046     		mov	r0, r4
 440 003a FFF7FEFF 		bl	DMA_SetConfig
 441              	.LVL26:
 304:Drivers/STM32F3xx_HAL_Driver/Src/stm32f3xx_hal_dma.c ****   }
 442              		.loc 1 304 4 view .LVU158
 304:Drivers/STM32F3xx_HAL_Driver/Src/stm32f3xx_hal_dma.c ****   }
 443              		.loc 1 304 8 is_stmt 0 view .LVU159
 444 003e 2268     		ldr	r2, [r4]
 304:Drivers/STM32F3xx_HAL_Driver/Src/stm32f3xx_hal_dma.c ****   }
 445              		.loc 1 304 18 view .LVU160
 446 0040 1368     		ldr	r3, [r2]
 304:Drivers/STM32F3xx_HAL_Driver/Src/stm32f3xx_hal_dma.c ****   }
 447              		.loc 1 304 24 view .LVU161
 448 0042 43F00103 		orr	r3, r3, #1
 449 0046 1360     		str	r3, [r2]
 282:Drivers/STM32F3xx_HAL_Driver/Src/stm32f3xx_hal_dma.c **** 
 450              		.loc 1 282 20 view .LVU162
 451 0048 2846     		mov	r0, r5
 452 004a EAE7     		b	.L24
 453              	.LVL27:
 454              	.L26:
 288:Drivers/STM32F3xx_HAL_Driver/Src/stm32f3xx_hal_dma.c ****   
 455              		.loc 1 288 3 view .LVU163
 456 004c 0220     		movs	r0, #2
 457 004e E8E7     		b	.L24
 458              		.cfi_endproc
 459              	.LFE125:
 461              		.section	.text.HAL_DMA_Start_IT,"ax",%progbits
 462              		.align	1
 463              		.global	HAL_DMA_Start_IT
 464              		.syntax unified
 465              		.thumb
 466              		.thumb_func
 468              	HAL_DMA_Start_IT:
 469              	.LVL28:
 470              	.LFB126:
 328:Drivers/STM32F3xx_HAL_Driver/Src/stm32f3xx_hal_dma.c **** 	HAL_StatusTypeDef status = HAL_OK;
 471              		.loc 1 328 1 is_stmt 1 view -0
 472              		.cfi_startproc
 473              		@ args = 0, pretend = 0, frame = 0
 474              		@ frame_needed = 0, uses_anonymous_args = 0
 328:Drivers/STM32F3xx_HAL_Driver/Src/stm32f3xx_hal_dma.c **** 	HAL_StatusTypeDef status = HAL_OK;
 475              		.loc 1 328 1 is_stmt 0 view .LVU165
ARM GAS  C:\Users\cordi\AppData\Local\Temp\ccHp0T4h.s 			page 27


 476 0000 38B5     		push	{r3, r4, r5, lr}
 477              		.cfi_def_cfa_offset 16
 478              		.cfi_offset 3, -16
 479              		.cfi_offset 4, -12
 480              		.cfi_offset 5, -8
 481              		.cfi_offset 14, -4
 482 0002 0446     		mov	r4, r0
 329:Drivers/STM32F3xx_HAL_Driver/Src/stm32f3xx_hal_dma.c **** 
 483              		.loc 1 329 2 is_stmt 1 view .LVU166
 484              	.LVL29:
 332:Drivers/STM32F3xx_HAL_Driver/Src/stm32f3xx_hal_dma.c ****   
 485              		.loc 1 332 3 view .LVU167
 335:Drivers/STM32F3xx_HAL_Driver/Src/stm32f3xx_hal_dma.c ****   
 486              		.loc 1 335 3 view .LVU168
 335:Drivers/STM32F3xx_HAL_Driver/Src/stm32f3xx_hal_dma.c ****   
 487              		.loc 1 335 3 view .LVU169
 488 0004 90F82000 		ldrb	r0, [r0, #32]	@ zero_extendqisi2
 489              	.LVL30:
 335:Drivers/STM32F3xx_HAL_Driver/Src/stm32f3xx_hal_dma.c ****   
 490              		.loc 1 335 3 is_stmt 0 view .LVU170
 491 0008 0128     		cmp	r0, #1
 492 000a 31D0     		beq	.L34
 335:Drivers/STM32F3xx_HAL_Driver/Src/stm32f3xx_hal_dma.c ****   
 493              		.loc 1 335 3 is_stmt 1 discriminator 2 view .LVU171
 494 000c 0120     		movs	r0, #1
 495 000e 84F82000 		strb	r0, [r4, #32]
 335:Drivers/STM32F3xx_HAL_Driver/Src/stm32f3xx_hal_dma.c ****   
 496              		.loc 1 335 3 discriminator 2 view .LVU172
 337:Drivers/STM32F3xx_HAL_Driver/Src/stm32f3xx_hal_dma.c ****   {
 497              		.loc 1 337 3 discriminator 2 view .LVU173
 337:Drivers/STM32F3xx_HAL_Driver/Src/stm32f3xx_hal_dma.c ****   {
 498              		.loc 1 337 33 is_stmt 0 discriminator 2 view .LVU174
 499 0012 94F82100 		ldrb	r0, [r4, #33]	@ zero_extendqisi2
 337:Drivers/STM32F3xx_HAL_Driver/Src/stm32f3xx_hal_dma.c ****   {
 500              		.loc 1 337 5 discriminator 2 view .LVU175
 501 0016 0128     		cmp	r0, #1
 502 0018 04D0     		beq	.L36
 368:Drivers/STM32F3xx_HAL_Driver/Src/stm32f3xx_hal_dma.c ****   
 503              		.loc 1 368 5 is_stmt 1 view .LVU176
 368:Drivers/STM32F3xx_HAL_Driver/Src/stm32f3xx_hal_dma.c ****   
 504              		.loc 1 368 5 view .LVU177
 505 001a 0023     		movs	r3, #0
 506              	.LVL31:
 368:Drivers/STM32F3xx_HAL_Driver/Src/stm32f3xx_hal_dma.c ****   
 507              		.loc 1 368 5 is_stmt 0 view .LVU178
 508 001c 84F82030 		strb	r3, [r4, #32]
 368:Drivers/STM32F3xx_HAL_Driver/Src/stm32f3xx_hal_dma.c ****   
 509              		.loc 1 368 5 is_stmt 1 view .LVU179
 371:Drivers/STM32F3xx_HAL_Driver/Src/stm32f3xx_hal_dma.c ****   }     
 510              		.loc 1 371 5 view .LVU180
 511              	.LVL32:
 371:Drivers/STM32F3xx_HAL_Driver/Src/stm32f3xx_hal_dma.c ****   }     
 512              		.loc 1 371 12 is_stmt 0 view .LVU181
 513 0020 0220     		movs	r0, #2
 514              	.LVL33:
 515              	.L30:
 375:Drivers/STM32F3xx_HAL_Driver/Src/stm32f3xx_hal_dma.c **** 
ARM GAS  C:\Users\cordi\AppData\Local\Temp\ccHp0T4h.s 			page 28


 516              		.loc 1 375 1 view .LVU182
 517 0022 38BD     		pop	{r3, r4, r5, pc}
 518              	.LVL34:
 519              	.L36:
 340:Drivers/STM32F3xx_HAL_Driver/Src/stm32f3xx_hal_dma.c ****   	
 520              		.loc 1 340 4 is_stmt 1 view .LVU183
 340:Drivers/STM32F3xx_HAL_Driver/Src/stm32f3xx_hal_dma.c ****   	
 521              		.loc 1 340 16 is_stmt 0 view .LVU184
 522 0024 0220     		movs	r0, #2
 523 0026 84F82100 		strb	r0, [r4, #33]
 342:Drivers/STM32F3xx_HAL_Driver/Src/stm32f3xx_hal_dma.c ****   	
 524              		.loc 1 342 4 is_stmt 1 view .LVU185
 342:Drivers/STM32F3xx_HAL_Driver/Src/stm32f3xx_hal_dma.c ****   	
 525              		.loc 1 342 20 is_stmt 0 view .LVU186
 526 002a 0020     		movs	r0, #0
 527 002c A063     		str	r0, [r4, #56]
 345:Drivers/STM32F3xx_HAL_Driver/Src/stm32f3xx_hal_dma.c ****   	
 528              		.loc 1 345 4 is_stmt 1 view .LVU187
 345:Drivers/STM32F3xx_HAL_Driver/Src/stm32f3xx_hal_dma.c ****   	
 529              		.loc 1 345 8 is_stmt 0 view .LVU188
 530 002e 2568     		ldr	r5, [r4]
 345:Drivers/STM32F3xx_HAL_Driver/Src/stm32f3xx_hal_dma.c ****   	
 531              		.loc 1 345 18 view .LVU189
 532 0030 2868     		ldr	r0, [r5]
 345:Drivers/STM32F3xx_HAL_Driver/Src/stm32f3xx_hal_dma.c ****   	
 533              		.loc 1 345 24 view .LVU190
 534 0032 20F00100 		bic	r0, r0, #1
 535 0036 2860     		str	r0, [r5]
 348:Drivers/STM32F3xx_HAL_Driver/Src/stm32f3xx_hal_dma.c ****   	
 536              		.loc 1 348 4 is_stmt 1 view .LVU191
 537 0038 2046     		mov	r0, r4
 538 003a FFF7FEFF 		bl	DMA_SetConfig
 539              	.LVL35:
 352:Drivers/STM32F3xx_HAL_Driver/Src/stm32f3xx_hal_dma.c ****     {
 540              		.loc 1 352 5 view .LVU192
 352:Drivers/STM32F3xx_HAL_Driver/Src/stm32f3xx_hal_dma.c ****     {
 541              		.loc 1 352 20 is_stmt 0 view .LVU193
 542 003e E36A     		ldr	r3, [r4, #44]
 352:Drivers/STM32F3xx_HAL_Driver/Src/stm32f3xx_hal_dma.c ****     {
 543              		.loc 1 352 7 view .LVU194
 544 0040 5BB1     		cbz	r3, .L32
 354:Drivers/STM32F3xx_HAL_Driver/Src/stm32f3xx_hal_dma.c ****     }
 545              		.loc 1 354 7 is_stmt 1 view .LVU195
 354:Drivers/STM32F3xx_HAL_Driver/Src/stm32f3xx_hal_dma.c ****     }
 546              		.loc 1 354 11 is_stmt 0 view .LVU196
 547 0042 2268     		ldr	r2, [r4]
 354:Drivers/STM32F3xx_HAL_Driver/Src/stm32f3xx_hal_dma.c ****     }
 548              		.loc 1 354 21 view .LVU197
 549 0044 1368     		ldr	r3, [r2]
 354:Drivers/STM32F3xx_HAL_Driver/Src/stm32f3xx_hal_dma.c ****     }
 550              		.loc 1 354 27 view .LVU198
 551 0046 43F00E03 		orr	r3, r3, #14
 552 004a 1360     		str	r3, [r2]
 553              	.L33:
 363:Drivers/STM32F3xx_HAL_Driver/Src/stm32f3xx_hal_dma.c ****   }
 554              		.loc 1 363 4 is_stmt 1 view .LVU199
 363:Drivers/STM32F3xx_HAL_Driver/Src/stm32f3xx_hal_dma.c ****   }
ARM GAS  C:\Users\cordi\AppData\Local\Temp\ccHp0T4h.s 			page 29


 555              		.loc 1 363 8 is_stmt 0 view .LVU200
 556 004c 2268     		ldr	r2, [r4]
 363:Drivers/STM32F3xx_HAL_Driver/Src/stm32f3xx_hal_dma.c ****   }
 557              		.loc 1 363 18 view .LVU201
 558 004e 1368     		ldr	r3, [r2]
 363:Drivers/STM32F3xx_HAL_Driver/Src/stm32f3xx_hal_dma.c ****   }
 559              		.loc 1 363 24 view .LVU202
 560 0050 43F00103 		orr	r3, r3, #1
 561 0054 1360     		str	r3, [r2]
 329:Drivers/STM32F3xx_HAL_Driver/Src/stm32f3xx_hal_dma.c **** 
 562              		.loc 1 329 20 view .LVU203
 563 0056 0020     		movs	r0, #0
 564 0058 E3E7     		b	.L30
 565              	.L32:
 358:Drivers/STM32F3xx_HAL_Driver/Src/stm32f3xx_hal_dma.c ****   		hdma->Instance->CCR &= ~DMA_IT_HT;
 566              		.loc 1 358 5 is_stmt 1 view .LVU204
 358:Drivers/STM32F3xx_HAL_Driver/Src/stm32f3xx_hal_dma.c ****   		hdma->Instance->CCR &= ~DMA_IT_HT;
 567              		.loc 1 358 9 is_stmt 0 view .LVU205
 568 005a 2268     		ldr	r2, [r4]
 358:Drivers/STM32F3xx_HAL_Driver/Src/stm32f3xx_hal_dma.c ****   		hdma->Instance->CCR &= ~DMA_IT_HT;
 569              		.loc 1 358 19 view .LVU206
 570 005c 1368     		ldr	r3, [r2]
 358:Drivers/STM32F3xx_HAL_Driver/Src/stm32f3xx_hal_dma.c ****   		hdma->Instance->CCR &= ~DMA_IT_HT;
 571              		.loc 1 358 25 view .LVU207
 572 005e 43F00A03 		orr	r3, r3, #10
 573 0062 1360     		str	r3, [r2]
 359:Drivers/STM32F3xx_HAL_Driver/Src/stm32f3xx_hal_dma.c ****   	}
 574              		.loc 1 359 5 is_stmt 1 view .LVU208
 359:Drivers/STM32F3xx_HAL_Driver/Src/stm32f3xx_hal_dma.c ****   	}
 575              		.loc 1 359 9 is_stmt 0 view .LVU209
 576 0064 2268     		ldr	r2, [r4]
 359:Drivers/STM32F3xx_HAL_Driver/Src/stm32f3xx_hal_dma.c ****   	}
 577              		.loc 1 359 19 view .LVU210
 578 0066 1368     		ldr	r3, [r2]
 359:Drivers/STM32F3xx_HAL_Driver/Src/stm32f3xx_hal_dma.c ****   	}
 579              		.loc 1 359 25 view .LVU211
 580 0068 23F00403 		bic	r3, r3, #4
 581 006c 1360     		str	r3, [r2]
 582 006e EDE7     		b	.L33
 583              	.LVL36:
 584              	.L34:
 335:Drivers/STM32F3xx_HAL_Driver/Src/stm32f3xx_hal_dma.c ****   
 585              		.loc 1 335 3 view .LVU212
 586 0070 0220     		movs	r0, #2
 587 0072 D6E7     		b	.L30
 588              		.cfi_endproc
 589              	.LFE126:
 591              		.section	.text.HAL_DMA_Abort,"ax",%progbits
 592              		.align	1
 593              		.global	HAL_DMA_Abort
 594              		.syntax unified
 595              		.thumb
 596              		.thumb_func
 598              	HAL_DMA_Abort:
 599              	.LVL37:
 600              	.LFB127:
 384:Drivers/STM32F3xx_HAL_Driver/Src/stm32f3xx_hal_dma.c ****   if(hdma->State != HAL_DMA_STATE_BUSY)
ARM GAS  C:\Users\cordi\AppData\Local\Temp\ccHp0T4h.s 			page 30


 601              		.loc 1 384 1 is_stmt 1 view -0
 602              		.cfi_startproc
 603              		@ args = 0, pretend = 0, frame = 0
 604              		@ frame_needed = 0, uses_anonymous_args = 0
 605              		@ link register save eliminated.
 384:Drivers/STM32F3xx_HAL_Driver/Src/stm32f3xx_hal_dma.c ****   if(hdma->State != HAL_DMA_STATE_BUSY)
 606              		.loc 1 384 1 is_stmt 0 view .LVU214
 607 0000 0346     		mov	r3, r0
 385:Drivers/STM32F3xx_HAL_Driver/Src/stm32f3xx_hal_dma.c ****   {
 608              		.loc 1 385 3 is_stmt 1 view .LVU215
 385:Drivers/STM32F3xx_HAL_Driver/Src/stm32f3xx_hal_dma.c ****   {
 609              		.loc 1 385 10 is_stmt 0 view .LVU216
 610 0002 90F82120 		ldrb	r2, [r0, #33]	@ zero_extendqisi2
 385:Drivers/STM32F3xx_HAL_Driver/Src/stm32f3xx_hal_dma.c ****   {
 611              		.loc 1 385 5 view .LVU217
 612 0006 022A     		cmp	r2, #2
 613 0008 06D0     		beq	.L38
 388:Drivers/STM32F3xx_HAL_Driver/Src/stm32f3xx_hal_dma.c ****     
 614              		.loc 1 388 5 is_stmt 1 view .LVU218
 388:Drivers/STM32F3xx_HAL_Driver/Src/stm32f3xx_hal_dma.c ****     
 615              		.loc 1 388 21 is_stmt 0 view .LVU219
 616 000a 0422     		movs	r2, #4
 617 000c 8263     		str	r2, [r0, #56]
 391:Drivers/STM32F3xx_HAL_Driver/Src/stm32f3xx_hal_dma.c ****     
 618              		.loc 1 391 5 is_stmt 1 view .LVU220
 391:Drivers/STM32F3xx_HAL_Driver/Src/stm32f3xx_hal_dma.c ****     
 619              		.loc 1 391 5 view .LVU221
 620 000e 0022     		movs	r2, #0
 621 0010 80F82020 		strb	r2, [r0, #32]
 391:Drivers/STM32F3xx_HAL_Driver/Src/stm32f3xx_hal_dma.c ****     
 622              		.loc 1 391 5 view .LVU222
 393:Drivers/STM32F3xx_HAL_Driver/Src/stm32f3xx_hal_dma.c ****   }
 623              		.loc 1 393 5 view .LVU223
 393:Drivers/STM32F3xx_HAL_Driver/Src/stm32f3xx_hal_dma.c ****   }
 624              		.loc 1 393 12 is_stmt 0 view .LVU224
 625 0014 0120     		movs	r0, #1
 626              	.LVL38:
 393:Drivers/STM32F3xx_HAL_Driver/Src/stm32f3xx_hal_dma.c ****   }
 627              		.loc 1 393 12 view .LVU225
 628 0016 7047     		bx	lr
 629              	.LVL39:
 630              	.L38:
 398:Drivers/STM32F3xx_HAL_Driver/Src/stm32f3xx_hal_dma.c ****     
 631              		.loc 1 398 6 is_stmt 1 view .LVU226
 398:Drivers/STM32F3xx_HAL_Driver/Src/stm32f3xx_hal_dma.c ****     
 632              		.loc 1 398 10 is_stmt 0 view .LVU227
 633 0018 0168     		ldr	r1, [r0]
 398:Drivers/STM32F3xx_HAL_Driver/Src/stm32f3xx_hal_dma.c ****     
 634              		.loc 1 398 20 view .LVU228
 635 001a 0A68     		ldr	r2, [r1]
 398:Drivers/STM32F3xx_HAL_Driver/Src/stm32f3xx_hal_dma.c ****     
 636              		.loc 1 398 26 view .LVU229
 637 001c 22F00E02 		bic	r2, r2, #14
 638 0020 0A60     		str	r2, [r1]
 401:Drivers/STM32F3xx_HAL_Driver/Src/stm32f3xx_hal_dma.c ****     
 639              		.loc 1 401 5 is_stmt 1 view .LVU230
 401:Drivers/STM32F3xx_HAL_Driver/Src/stm32f3xx_hal_dma.c ****     
ARM GAS  C:\Users\cordi\AppData\Local\Temp\ccHp0T4h.s 			page 31


 640              		.loc 1 401 9 is_stmt 0 view .LVU231
 641 0022 0168     		ldr	r1, [r0]
 401:Drivers/STM32F3xx_HAL_Driver/Src/stm32f3xx_hal_dma.c ****     
 642              		.loc 1 401 19 view .LVU232
 643 0024 0A68     		ldr	r2, [r1]
 401:Drivers/STM32F3xx_HAL_Driver/Src/stm32f3xx_hal_dma.c ****     
 644              		.loc 1 401 25 view .LVU233
 645 0026 22F00102 		bic	r2, r2, #1
 646 002a 0A60     		str	r2, [r1]
 404:Drivers/STM32F3xx_HAL_Driver/Src/stm32f3xx_hal_dma.c ****   }
 647              		.loc 1 404 5 is_stmt 1 view .LVU234
 404:Drivers/STM32F3xx_HAL_Driver/Src/stm32f3xx_hal_dma.c ****   }
 648              		.loc 1 404 55 is_stmt 0 view .LVU235
 649 002c 026C     		ldr	r2, [r0, #64]
 404:Drivers/STM32F3xx_HAL_Driver/Src/stm32f3xx_hal_dma.c ****   }
 650              		.loc 1 404 9 view .LVU236
 651 002e C06B     		ldr	r0, [r0, #60]
 652              	.LVL40:
 404:Drivers/STM32F3xx_HAL_Driver/Src/stm32f3xx_hal_dma.c ****   }
 653              		.loc 1 404 48 view .LVU237
 654 0030 0121     		movs	r1, #1
 655 0032 01FA02F2 		lsl	r2, r1, r2
 404:Drivers/STM32F3xx_HAL_Driver/Src/stm32f3xx_hal_dma.c ****   }
 656              		.loc 1 404 32 view .LVU238
 657 0036 4260     		str	r2, [r0, #4]
 407:Drivers/STM32F3xx_HAL_Driver/Src/stm32f3xx_hal_dma.c ****   
 658              		.loc 1 407 3 is_stmt 1 view .LVU239
 407:Drivers/STM32F3xx_HAL_Driver/Src/stm32f3xx_hal_dma.c ****   
 659              		.loc 1 407 15 is_stmt 0 view .LVU240
 660 0038 83F82110 		strb	r1, [r3, #33]
 410:Drivers/STM32F3xx_HAL_Driver/Src/stm32f3xx_hal_dma.c ****   
 661              		.loc 1 410 3 is_stmt 1 view .LVU241
 410:Drivers/STM32F3xx_HAL_Driver/Src/stm32f3xx_hal_dma.c ****   
 662              		.loc 1 410 3 view .LVU242
 663 003c 0020     		movs	r0, #0
 664 003e 83F82000 		strb	r0, [r3, #32]
 410:Drivers/STM32F3xx_HAL_Driver/Src/stm32f3xx_hal_dma.c ****   
 665              		.loc 1 410 3 view .LVU243
 412:Drivers/STM32F3xx_HAL_Driver/Src/stm32f3xx_hal_dma.c **** }
 666              		.loc 1 412 3 view .LVU244
 413:Drivers/STM32F3xx_HAL_Driver/Src/stm32f3xx_hal_dma.c **** 
 667              		.loc 1 413 1 is_stmt 0 view .LVU245
 668 0042 7047     		bx	lr
 669              		.cfi_endproc
 670              	.LFE127:
 672              		.section	.text.HAL_DMA_Abort_IT,"ax",%progbits
 673              		.align	1
 674              		.global	HAL_DMA_Abort_IT
 675              		.syntax unified
 676              		.thumb
 677              		.thumb_func
 679              	HAL_DMA_Abort_IT:
 680              	.LVL41:
 681              	.LFB128:
 422:Drivers/STM32F3xx_HAL_Driver/Src/stm32f3xx_hal_dma.c ****   HAL_StatusTypeDef status = HAL_OK;
 682              		.loc 1 422 1 is_stmt 1 view -0
 683              		.cfi_startproc
ARM GAS  C:\Users\cordi\AppData\Local\Temp\ccHp0T4h.s 			page 32


 684              		@ args = 0, pretend = 0, frame = 0
 685              		@ frame_needed = 0, uses_anonymous_args = 0
 422:Drivers/STM32F3xx_HAL_Driver/Src/stm32f3xx_hal_dma.c ****   HAL_StatusTypeDef status = HAL_OK;
 686              		.loc 1 422 1 is_stmt 0 view .LVU247
 687 0000 08B5     		push	{r3, lr}
 688              		.cfi_def_cfa_offset 8
 689              		.cfi_offset 3, -8
 690              		.cfi_offset 14, -4
 423:Drivers/STM32F3xx_HAL_Driver/Src/stm32f3xx_hal_dma.c ****   
 691              		.loc 1 423 3 is_stmt 1 view .LVU248
 692              	.LVL42:
 425:Drivers/STM32F3xx_HAL_Driver/Src/stm32f3xx_hal_dma.c ****   {
 693              		.loc 1 425 3 view .LVU249
 425:Drivers/STM32F3xx_HAL_Driver/Src/stm32f3xx_hal_dma.c ****   {
 694              		.loc 1 425 32 is_stmt 0 view .LVU250
 695 0002 90F82130 		ldrb	r3, [r0, #33]	@ zero_extendqisi2
 425:Drivers/STM32F3xx_HAL_Driver/Src/stm32f3xx_hal_dma.c ****   {
 696              		.loc 1 425 5 view .LVU251
 697 0006 022B     		cmp	r3, #2
 698 0008 03D0     		beq	.L41
 428:Drivers/STM32F3xx_HAL_Driver/Src/stm32f3xx_hal_dma.c ****         
 699              		.loc 1 428 5 is_stmt 1 view .LVU252
 428:Drivers/STM32F3xx_HAL_Driver/Src/stm32f3xx_hal_dma.c ****         
 700              		.loc 1 428 21 is_stmt 0 view .LVU253
 701 000a 0423     		movs	r3, #4
 702 000c 8363     		str	r3, [r0, #56]
 430:Drivers/STM32F3xx_HAL_Driver/Src/stm32f3xx_hal_dma.c ****   }
 703              		.loc 1 430 5 is_stmt 1 view .LVU254
 704              	.LVL43:
 430:Drivers/STM32F3xx_HAL_Driver/Src/stm32f3xx_hal_dma.c ****   }
 705              		.loc 1 430 12 is_stmt 0 view .LVU255
 706 000e 0120     		movs	r0, #1
 707              	.LVL44:
 708              	.L42:
 456:Drivers/STM32F3xx_HAL_Driver/Src/stm32f3xx_hal_dma.c **** }
 709              		.loc 1 456 3 is_stmt 1 view .LVU256
 457:Drivers/STM32F3xx_HAL_Driver/Src/stm32f3xx_hal_dma.c **** 
 710              		.loc 1 457 1 is_stmt 0 view .LVU257
 711 0010 08BD     		pop	{r3, pc}
 712              	.LVL45:
 713              	.L41:
 436:Drivers/STM32F3xx_HAL_Driver/Src/stm32f3xx_hal_dma.c ****     
 714              		.loc 1 436 5 is_stmt 1 view .LVU258
 436:Drivers/STM32F3xx_HAL_Driver/Src/stm32f3xx_hal_dma.c ****     
 715              		.loc 1 436 9 is_stmt 0 view .LVU259
 716 0012 0268     		ldr	r2, [r0]
 436:Drivers/STM32F3xx_HAL_Driver/Src/stm32f3xx_hal_dma.c ****     
 717              		.loc 1 436 19 view .LVU260
 718 0014 1368     		ldr	r3, [r2]
 436:Drivers/STM32F3xx_HAL_Driver/Src/stm32f3xx_hal_dma.c ****     
 719              		.loc 1 436 25 view .LVU261
 720 0016 23F00E03 		bic	r3, r3, #14
 721 001a 1360     		str	r3, [r2]
 439:Drivers/STM32F3xx_HAL_Driver/Src/stm32f3xx_hal_dma.c ****     
 722              		.loc 1 439 5 is_stmt 1 view .LVU262
 439:Drivers/STM32F3xx_HAL_Driver/Src/stm32f3xx_hal_dma.c ****     
 723              		.loc 1 439 9 is_stmt 0 view .LVU263
ARM GAS  C:\Users\cordi\AppData\Local\Temp\ccHp0T4h.s 			page 33


 724 001c 0268     		ldr	r2, [r0]
 439:Drivers/STM32F3xx_HAL_Driver/Src/stm32f3xx_hal_dma.c ****     
 725              		.loc 1 439 19 view .LVU264
 726 001e 1368     		ldr	r3, [r2]
 439:Drivers/STM32F3xx_HAL_Driver/Src/stm32f3xx_hal_dma.c ****     
 727              		.loc 1 439 25 view .LVU265
 728 0020 23F00103 		bic	r3, r3, #1
 729 0024 1360     		str	r3, [r2]
 442:Drivers/STM32F3xx_HAL_Driver/Src/stm32f3xx_hal_dma.c ****     
 730              		.loc 1 442 5 is_stmt 1 view .LVU266
 442:Drivers/STM32F3xx_HAL_Driver/Src/stm32f3xx_hal_dma.c ****     
 731              		.loc 1 442 54 is_stmt 0 view .LVU267
 732 0026 036C     		ldr	r3, [r0, #64]
 442:Drivers/STM32F3xx_HAL_Driver/Src/stm32f3xx_hal_dma.c ****     
 733              		.loc 1 442 9 view .LVU268
 734 0028 C16B     		ldr	r1, [r0, #60]
 442:Drivers/STM32F3xx_HAL_Driver/Src/stm32f3xx_hal_dma.c ****     
 735              		.loc 1 442 47 view .LVU269
 736 002a 0122     		movs	r2, #1
 737 002c 02FA03F3 		lsl	r3, r2, r3
 442:Drivers/STM32F3xx_HAL_Driver/Src/stm32f3xx_hal_dma.c ****     
 738              		.loc 1 442 32 view .LVU270
 739 0030 4B60     		str	r3, [r1, #4]
 445:Drivers/STM32F3xx_HAL_Driver/Src/stm32f3xx_hal_dma.c ****     
 740              		.loc 1 445 5 is_stmt 1 view .LVU271
 445:Drivers/STM32F3xx_HAL_Driver/Src/stm32f3xx_hal_dma.c ****     
 741              		.loc 1 445 17 is_stmt 0 view .LVU272
 742 0032 80F82120 		strb	r2, [r0, #33]
 448:Drivers/STM32F3xx_HAL_Driver/Src/stm32f3xx_hal_dma.c ****     
 743              		.loc 1 448 5 is_stmt 1 view .LVU273
 448:Drivers/STM32F3xx_HAL_Driver/Src/stm32f3xx_hal_dma.c ****     
 744              		.loc 1 448 5 view .LVU274
 745 0036 0023     		movs	r3, #0
 746 0038 80F82030 		strb	r3, [r0, #32]
 448:Drivers/STM32F3xx_HAL_Driver/Src/stm32f3xx_hal_dma.c ****     
 747              		.loc 1 448 5 view .LVU275
 451:Drivers/STM32F3xx_HAL_Driver/Src/stm32f3xx_hal_dma.c ****     {
 748              		.loc 1 451 5 view .LVU276
 451:Drivers/STM32F3xx_HAL_Driver/Src/stm32f3xx_hal_dma.c ****     {
 749              		.loc 1 451 12 is_stmt 0 view .LVU277
 750 003c 436B     		ldr	r3, [r0, #52]
 451:Drivers/STM32F3xx_HAL_Driver/Src/stm32f3xx_hal_dma.c ****     {
 751              		.loc 1 451 7 view .LVU278
 752 003e 13B1     		cbz	r3, .L43
 453:Drivers/STM32F3xx_HAL_Driver/Src/stm32f3xx_hal_dma.c ****     } 
 753              		.loc 1 453 7 is_stmt 1 view .LVU279
 754 0040 9847     		blx	r3
 755              	.LVL46:
 423:Drivers/STM32F3xx_HAL_Driver/Src/stm32f3xx_hal_dma.c ****   
 756              		.loc 1 423 21 is_stmt 0 view .LVU280
 757 0042 0020     		movs	r0, #0
 758 0044 E4E7     		b	.L42
 759              	.LVL47:
 760              	.L43:
 423:Drivers/STM32F3xx_HAL_Driver/Src/stm32f3xx_hal_dma.c ****   
 761              		.loc 1 423 21 view .LVU281
 762 0046 0020     		movs	r0, #0
ARM GAS  C:\Users\cordi\AppData\Local\Temp\ccHp0T4h.s 			page 34


 763              	.LVL48:
 423:Drivers/STM32F3xx_HAL_Driver/Src/stm32f3xx_hal_dma.c ****   
 764              		.loc 1 423 21 view .LVU282
 765 0048 E2E7     		b	.L42
 766              		.cfi_endproc
 767              	.LFE128:
 769              		.section	.text.HAL_DMA_PollForTransfer,"ax",%progbits
 770              		.align	1
 771              		.global	HAL_DMA_PollForTransfer
 772              		.syntax unified
 773              		.thumb
 774              		.thumb_func
 776              	HAL_DMA_PollForTransfer:
 777              	.LVL49:
 778              	.LFB129:
 468:Drivers/STM32F3xx_HAL_Driver/Src/stm32f3xx_hal_dma.c ****   uint32_t temp;
 779              		.loc 1 468 1 is_stmt 1 view -0
 780              		.cfi_startproc
 781              		@ args = 0, pretend = 0, frame = 0
 782              		@ frame_needed = 0, uses_anonymous_args = 0
 468:Drivers/STM32F3xx_HAL_Driver/Src/stm32f3xx_hal_dma.c ****   uint32_t temp;
 783              		.loc 1 468 1 is_stmt 0 view .LVU284
 784 0000 2DE9F843 		push	{r3, r4, r5, r6, r7, r8, r9, lr}
 785              		.cfi_def_cfa_offset 32
 786              		.cfi_offset 3, -32
 787              		.cfi_offset 4, -28
 788              		.cfi_offset 5, -24
 789              		.cfi_offset 6, -20
 790              		.cfi_offset 7, -16
 791              		.cfi_offset 8, -12
 792              		.cfi_offset 9, -8
 793              		.cfi_offset 14, -4
 794 0004 0446     		mov	r4, r0
 469:Drivers/STM32F3xx_HAL_Driver/Src/stm32f3xx_hal_dma.c ****   uint32_t tickstart = 0U;
 795              		.loc 1 469 3 is_stmt 1 view .LVU285
 470:Drivers/STM32F3xx_HAL_Driver/Src/stm32f3xx_hal_dma.c ****   
 796              		.loc 1 470 3 view .LVU286
 797              	.LVL50:
 472:Drivers/STM32F3xx_HAL_Driver/Src/stm32f3xx_hal_dma.c ****   {
 798              		.loc 1 472 3 view .LVU287
 472:Drivers/STM32F3xx_HAL_Driver/Src/stm32f3xx_hal_dma.c ****   {
 799              		.loc 1 472 32 is_stmt 0 view .LVU288
 800 0006 90F82130 		ldrb	r3, [r0, #33]	@ zero_extendqisi2
 472:Drivers/STM32F3xx_HAL_Driver/Src/stm32f3xx_hal_dma.c ****   {
 801              		.loc 1 472 5 view .LVU289
 802 000a 022B     		cmp	r3, #2
 803 000c 07D0     		beq	.L46
 475:Drivers/STM32F3xx_HAL_Driver/Src/stm32f3xx_hal_dma.c ****     __HAL_UNLOCK(hdma);
 804              		.loc 1 475 5 is_stmt 1 view .LVU290
 475:Drivers/STM32F3xx_HAL_Driver/Src/stm32f3xx_hal_dma.c ****     __HAL_UNLOCK(hdma);
 805              		.loc 1 475 21 is_stmt 0 view .LVU291
 806 000e 0423     		movs	r3, #4
 807 0010 8363     		str	r3, [r0, #56]
 476:Drivers/STM32F3xx_HAL_Driver/Src/stm32f3xx_hal_dma.c ****     return HAL_ERROR;
 808              		.loc 1 476 5 is_stmt 1 view .LVU292
 476:Drivers/STM32F3xx_HAL_Driver/Src/stm32f3xx_hal_dma.c ****     return HAL_ERROR;
 809              		.loc 1 476 5 view .LVU293
ARM GAS  C:\Users\cordi\AppData\Local\Temp\ccHp0T4h.s 			page 35


 810 0012 0023     		movs	r3, #0
 811 0014 80F82030 		strb	r3, [r0, #32]
 476:Drivers/STM32F3xx_HAL_Driver/Src/stm32f3xx_hal_dma.c ****     return HAL_ERROR;
 812              		.loc 1 476 5 view .LVU294
 477:Drivers/STM32F3xx_HAL_Driver/Src/stm32f3xx_hal_dma.c ****   }
 813              		.loc 1 477 5 view .LVU295
 477:Drivers/STM32F3xx_HAL_Driver/Src/stm32f3xx_hal_dma.c ****   }
 814              		.loc 1 477 12 is_stmt 0 view .LVU296
 815 0018 0120     		movs	r0, #1
 816              	.LVL51:
 817              	.L47:
 560:Drivers/STM32F3xx_HAL_Driver/Src/stm32f3xx_hal_dma.c **** 
 818              		.loc 1 560 1 view .LVU297
 819 001a BDE8F883 		pop	{r3, r4, r5, r6, r7, r8, r9, pc}
 820              	.LVL52:
 821              	.L46:
 560:Drivers/STM32F3xx_HAL_Driver/Src/stm32f3xx_hal_dma.c **** 
 822              		.loc 1 560 1 view .LVU298
 823 001e 8846     		mov	r8, r1
 824 0020 1646     		mov	r6, r2
 481:Drivers/STM32F3xx_HAL_Driver/Src/stm32f3xx_hal_dma.c ****   {
 825              		.loc 1 481 3 is_stmt 1 view .LVU299
 481:Drivers/STM32F3xx_HAL_Driver/Src/stm32f3xx_hal_dma.c ****   {
 826              		.loc 1 481 21 is_stmt 0 view .LVU300
 827 0022 0368     		ldr	r3, [r0]
 481:Drivers/STM32F3xx_HAL_Driver/Src/stm32f3xx_hal_dma.c ****   {
 828              		.loc 1 481 31 view .LVU301
 829 0024 1B68     		ldr	r3, [r3]
 481:Drivers/STM32F3xx_HAL_Driver/Src/stm32f3xx_hal_dma.c ****   {
 830              		.loc 1 481 6 view .LVU302
 831 0026 13F0200F 		tst	r3, #32
 832 002a 23D1     		bne	.L59
 488:Drivers/STM32F3xx_HAL_Driver/Src/stm32f3xx_hal_dma.c ****   {
 833              		.loc 1 488 3 is_stmt 1 view .LVU303
 488:Drivers/STM32F3xx_HAL_Driver/Src/stm32f3xx_hal_dma.c ****   {
 834              		.loc 1 488 5 is_stmt 0 view .LVU304
 835 002c 39BB     		cbnz	r1, .L49
 491:Drivers/STM32F3xx_HAL_Driver/Src/stm32f3xx_hal_dma.c ****   }
 836              		.loc 1 491 5 is_stmt 1 view .LVU305
 491:Drivers/STM32F3xx_HAL_Driver/Src/stm32f3xx_hal_dma.c ****   }
 837              		.loc 1 491 32 is_stmt 0 view .LVU306
 838 002e 036C     		ldr	r3, [r0, #64]
 491:Drivers/STM32F3xx_HAL_Driver/Src/stm32f3xx_hal_dma.c ****   }
 839              		.loc 1 491 10 view .LVU307
 840 0030 0227     		movs	r7, #2
 841 0032 9F40     		lsls	r7, r7, r3
 842              	.LVL53:
 843              	.L50:
 500:Drivers/STM32F3xx_HAL_Driver/Src/stm32f3xx_hal_dma.c **** 
 844              		.loc 1 500 3 is_stmt 1 view .LVU308
 500:Drivers/STM32F3xx_HAL_Driver/Src/stm32f3xx_hal_dma.c **** 
 845              		.loc 1 500 15 is_stmt 0 view .LVU309
 846 0034 FFF7FEFF 		bl	HAL_GetTick
 847              	.LVL54:
 500:Drivers/STM32F3xx_HAL_Driver/Src/stm32f3xx_hal_dma.c **** 
 848              		.loc 1 500 15 view .LVU310
 849 0038 8146     		mov	r9, r0
ARM GAS  C:\Users\cordi\AppData\Local\Temp\ccHp0T4h.s 			page 36


 850              	.LVL55:
 502:Drivers/STM32F3xx_HAL_Driver/Src/stm32f3xx_hal_dma.c ****   {
 851              		.loc 1 502 3 is_stmt 1 view .LVU311
 852              	.L53:
 502:Drivers/STM32F3xx_HAL_Driver/Src/stm32f3xx_hal_dma.c ****   {
 853              		.loc 1 502 15 view .LVU312
 502:Drivers/STM32F3xx_HAL_Driver/Src/stm32f3xx_hal_dma.c ****   {
 854              		.loc 1 502 23 is_stmt 0 view .LVU313
 855 003a E56B     		ldr	r5, [r4, #60]
 502:Drivers/STM32F3xx_HAL_Driver/Src/stm32f3xx_hal_dma.c ****   {
 856              		.loc 1 502 39 view .LVU314
 857 003c 2B68     		ldr	r3, [r5]
 502:Drivers/STM32F3xx_HAL_Driver/Src/stm32f3xx_hal_dma.c ****   {
 858              		.loc 1 502 15 view .LVU315
 859 003e 3B42     		tst	r3, r7
 860 0040 2CD1     		bne	.L60
 504:Drivers/STM32F3xx_HAL_Driver/Src/stm32f3xx_hal_dma.c ****     {      
 861              		.loc 1 504 5 is_stmt 1 view .LVU316
 504:Drivers/STM32F3xx_HAL_Driver/Src/stm32f3xx_hal_dma.c ****     {      
 862              		.loc 1 504 38 is_stmt 0 view .LVU317
 863 0042 2968     		ldr	r1, [r5]
 504:Drivers/STM32F3xx_HAL_Driver/Src/stm32f3xx_hal_dma.c ****     {      
 864              		.loc 1 504 67 view .LVU318
 865 0044 226C     		ldr	r2, [r4, #64]
 504:Drivers/STM32F3xx_HAL_Driver/Src/stm32f3xx_hal_dma.c ****     {      
 866              		.loc 1 504 60 view .LVU319
 867 0046 0823     		movs	r3, #8
 868 0048 9340     		lsls	r3, r3, r2
 504:Drivers/STM32F3xx_HAL_Driver/Src/stm32f3xx_hal_dma.c ****     {      
 869              		.loc 1 504 7 view .LVU320
 870 004a 1942     		tst	r1, r3
 871 004c 1BD1     		bne	.L61
 523:Drivers/STM32F3xx_HAL_Driver/Src/stm32f3xx_hal_dma.c ****     {
 872              		.loc 1 523 5 is_stmt 1 view .LVU321
 523:Drivers/STM32F3xx_HAL_Driver/Src/stm32f3xx_hal_dma.c ****     {
 873              		.loc 1 523 7 is_stmt 0 view .LVU322
 874 004e B6F1FF3F 		cmp	r6, #-1
 875 0052 F2D0     		beq	.L53
 525:Drivers/STM32F3xx_HAL_Driver/Src/stm32f3xx_hal_dma.c ****       {
 876              		.loc 1 525 7 is_stmt 1 view .LVU323
 525:Drivers/STM32F3xx_HAL_Driver/Src/stm32f3xx_hal_dma.c ****       {
 877              		.loc 1 525 9 is_stmt 0 view .LVU324
 878 0054 2EB1     		cbz	r6, .L54
 525:Drivers/STM32F3xx_HAL_Driver/Src/stm32f3xx_hal_dma.c ****       {
 879              		.loc 1 525 31 discriminator 1 view .LVU325
 880 0056 FFF7FEFF 		bl	HAL_GetTick
 881              	.LVL56:
 525:Drivers/STM32F3xx_HAL_Driver/Src/stm32f3xx_hal_dma.c ****       {
 882              		.loc 1 525 45 discriminator 1 view .LVU326
 883 005a A0EB0900 		sub	r0, r0, r9
 525:Drivers/STM32F3xx_HAL_Driver/Src/stm32f3xx_hal_dma.c ****       {
 884              		.loc 1 525 26 discriminator 1 view .LVU327
 885 005e B042     		cmp	r0, r6
 886 0060 EBD9     		bls	.L53
 887              	.L54:
 528:Drivers/STM32F3xx_HAL_Driver/Src/stm32f3xx_hal_dma.c ****         
 888              		.loc 1 528 9 is_stmt 1 view .LVU328
ARM GAS  C:\Users\cordi\AppData\Local\Temp\ccHp0T4h.s 			page 37


 528:Drivers/STM32F3xx_HAL_Driver/Src/stm32f3xx_hal_dma.c ****         
 889              		.loc 1 528 25 is_stmt 0 view .LVU329
 890 0062 2023     		movs	r3, #32
 891 0064 A363     		str	r3, [r4, #56]
 531:Drivers/STM32F3xx_HAL_Driver/Src/stm32f3xx_hal_dma.c **** 
 892              		.loc 1 531 9 is_stmt 1 view .LVU330
 531:Drivers/STM32F3xx_HAL_Driver/Src/stm32f3xx_hal_dma.c **** 
 893              		.loc 1 531 21 is_stmt 0 view .LVU331
 894 0066 0120     		movs	r0, #1
 895 0068 84F82100 		strb	r0, [r4, #33]
 534:Drivers/STM32F3xx_HAL_Driver/Src/stm32f3xx_hal_dma.c **** 
 896              		.loc 1 534 9 is_stmt 1 view .LVU332
 534:Drivers/STM32F3xx_HAL_Driver/Src/stm32f3xx_hal_dma.c **** 
 897              		.loc 1 534 9 view .LVU333
 898 006c 0023     		movs	r3, #0
 899 006e 84F82030 		strb	r3, [r4, #32]
 534:Drivers/STM32F3xx_HAL_Driver/Src/stm32f3xx_hal_dma.c **** 
 900              		.loc 1 534 9 view .LVU334
 536:Drivers/STM32F3xx_HAL_Driver/Src/stm32f3xx_hal_dma.c ****       }
 901              		.loc 1 536 9 view .LVU335
 536:Drivers/STM32F3xx_HAL_Driver/Src/stm32f3xx_hal_dma.c ****       }
 902              		.loc 1 536 16 is_stmt 0 view .LVU336
 903 0072 D2E7     		b	.L47
 904              	.LVL57:
 905              	.L59:
 483:Drivers/STM32F3xx_HAL_Driver/Src/stm32f3xx_hal_dma.c ****     return HAL_ERROR;
 906              		.loc 1 483 5 is_stmt 1 view .LVU337
 483:Drivers/STM32F3xx_HAL_Driver/Src/stm32f3xx_hal_dma.c ****     return HAL_ERROR;
 907              		.loc 1 483 21 is_stmt 0 view .LVU338
 908 0074 4FF48073 		mov	r3, #256
 909 0078 8363     		str	r3, [r0, #56]
 484:Drivers/STM32F3xx_HAL_Driver/Src/stm32f3xx_hal_dma.c ****   }
 910              		.loc 1 484 5 is_stmt 1 view .LVU339
 484:Drivers/STM32F3xx_HAL_Driver/Src/stm32f3xx_hal_dma.c ****   }
 911              		.loc 1 484 12 is_stmt 0 view .LVU340
 912 007a 0120     		movs	r0, #1
 913              	.LVL58:
 484:Drivers/STM32F3xx_HAL_Driver/Src/stm32f3xx_hal_dma.c ****   }
 914              		.loc 1 484 12 view .LVU341
 915 007c CDE7     		b	.L47
 916              	.LVL59:
 917              	.L49:
 496:Drivers/STM32F3xx_HAL_Driver/Src/stm32f3xx_hal_dma.c ****   }
 918              		.loc 1 496 5 is_stmt 1 view .LVU342
 496:Drivers/STM32F3xx_HAL_Driver/Src/stm32f3xx_hal_dma.c ****   }
 919              		.loc 1 496 32 is_stmt 0 view .LVU343
 920 007e 036C     		ldr	r3, [r0, #64]
 496:Drivers/STM32F3xx_HAL_Driver/Src/stm32f3xx_hal_dma.c ****   }
 921              		.loc 1 496 10 view .LVU344
 922 0080 0427     		movs	r7, #4
 923 0082 9F40     		lsls	r7, r7, r3
 924              	.LVL60:
 496:Drivers/STM32F3xx_HAL_Driver/Src/stm32f3xx_hal_dma.c ****   }
 925              		.loc 1 496 10 view .LVU345
 926 0084 D6E7     		b	.L50
 927              	.LVL61:
 928              	.L61:
ARM GAS  C:\Users\cordi\AppData\Local\Temp\ccHp0T4h.s 			page 38


 509:Drivers/STM32F3xx_HAL_Driver/Src/stm32f3xx_hal_dma.c ****       
 929              		.loc 1 509 7 is_stmt 1 view .LVU346
 509:Drivers/STM32F3xx_HAL_Driver/Src/stm32f3xx_hal_dma.c ****       
 930              		.loc 1 509 49 is_stmt 0 view .LVU347
 931 0086 0120     		movs	r0, #1
 932 0088 00FA02F2 		lsl	r2, r0, r2
 509:Drivers/STM32F3xx_HAL_Driver/Src/stm32f3xx_hal_dma.c ****       
 933              		.loc 1 509 34 view .LVU348
 934 008c 6A60     		str	r2, [r5, #4]
 512:Drivers/STM32F3xx_HAL_Driver/Src/stm32f3xx_hal_dma.c **** 
 935              		.loc 1 512 7 is_stmt 1 view .LVU349
 512:Drivers/STM32F3xx_HAL_Driver/Src/stm32f3xx_hal_dma.c **** 
 936              		.loc 1 512 23 is_stmt 0 view .LVU350
 937 008e A063     		str	r0, [r4, #56]
 515:Drivers/STM32F3xx_HAL_Driver/Src/stm32f3xx_hal_dma.c ****       
 938              		.loc 1 515 7 is_stmt 1 view .LVU351
 515:Drivers/STM32F3xx_HAL_Driver/Src/stm32f3xx_hal_dma.c ****       
 939              		.loc 1 515 18 is_stmt 0 view .LVU352
 940 0090 84F82100 		strb	r0, [r4, #33]
 518:Drivers/STM32F3xx_HAL_Driver/Src/stm32f3xx_hal_dma.c ****       
 941              		.loc 1 518 7 is_stmt 1 view .LVU353
 518:Drivers/STM32F3xx_HAL_Driver/Src/stm32f3xx_hal_dma.c ****       
 942              		.loc 1 518 7 view .LVU354
 943 0094 0023     		movs	r3, #0
 944 0096 84F82030 		strb	r3, [r4, #32]
 518:Drivers/STM32F3xx_HAL_Driver/Src/stm32f3xx_hal_dma.c ****       
 945              		.loc 1 518 7 view .LVU355
 520:Drivers/STM32F3xx_HAL_Driver/Src/stm32f3xx_hal_dma.c ****     }      
 946              		.loc 1 520 7 view .LVU356
 520:Drivers/STM32F3xx_HAL_Driver/Src/stm32f3xx_hal_dma.c ****     }      
 947              		.loc 1 520 14 is_stmt 0 view .LVU357
 948 009a BEE7     		b	.L47
 949              	.L60:
 541:Drivers/STM32F3xx_HAL_Driver/Src/stm32f3xx_hal_dma.c ****   {
 950              		.loc 1 541 3 is_stmt 1 view .LVU358
 541:Drivers/STM32F3xx_HAL_Driver/Src/stm32f3xx_hal_dma.c ****   {
 951              		.loc 1 541 5 is_stmt 0 view .LVU359
 952 009c B8F1000F 		cmp	r8, #0
 953 00a0 0AD1     		bne	.L56
 544:Drivers/STM32F3xx_HAL_Driver/Src/stm32f3xx_hal_dma.c **** 
 954              		.loc 1 544 5 is_stmt 1 view .LVU360
 544:Drivers/STM32F3xx_HAL_Driver/Src/stm32f3xx_hal_dma.c **** 
 955              		.loc 1 544 54 is_stmt 0 view .LVU361
 956 00a2 226C     		ldr	r2, [r4, #64]
 544:Drivers/STM32F3xx_HAL_Driver/Src/stm32f3xx_hal_dma.c **** 
 957              		.loc 1 544 47 view .LVU362
 958 00a4 0223     		movs	r3, #2
 959 00a6 9340     		lsls	r3, r3, r2
 544:Drivers/STM32F3xx_HAL_Driver/Src/stm32f3xx_hal_dma.c **** 
 960              		.loc 1 544 32 view .LVU363
 961 00a8 6B60     		str	r3, [r5, #4]
 548:Drivers/STM32F3xx_HAL_Driver/Src/stm32f3xx_hal_dma.c ****   }
 962              		.loc 1 548 5 is_stmt 1 view .LVU364
 548:Drivers/STM32F3xx_HAL_Driver/Src/stm32f3xx_hal_dma.c ****   }
 963              		.loc 1 548 17 is_stmt 0 view .LVU365
 964 00aa 0123     		movs	r3, #1
 965 00ac 84F82130 		strb	r3, [r4, #33]
ARM GAS  C:\Users\cordi\AppData\Local\Temp\ccHp0T4h.s 			page 39


 966              	.L57:
 557:Drivers/STM32F3xx_HAL_Driver/Src/stm32f3xx_hal_dma.c **** 
 967              		.loc 1 557 3 is_stmt 1 view .LVU366
 557:Drivers/STM32F3xx_HAL_Driver/Src/stm32f3xx_hal_dma.c **** 
 968              		.loc 1 557 3 view .LVU367
 969 00b0 0020     		movs	r0, #0
 970 00b2 84F82000 		strb	r0, [r4, #32]
 557:Drivers/STM32F3xx_HAL_Driver/Src/stm32f3xx_hal_dma.c **** 
 971              		.loc 1 557 3 view .LVU368
 559:Drivers/STM32F3xx_HAL_Driver/Src/stm32f3xx_hal_dma.c **** }
 972              		.loc 1 559 3 view .LVU369
 559:Drivers/STM32F3xx_HAL_Driver/Src/stm32f3xx_hal_dma.c **** }
 973              		.loc 1 559 10 is_stmt 0 view .LVU370
 974 00b6 B0E7     		b	.L47
 975              	.L56:
 553:Drivers/STM32F3xx_HAL_Driver/Src/stm32f3xx_hal_dma.c ****   }
 976              		.loc 1 553 5 is_stmt 1 view .LVU371
 553:Drivers/STM32F3xx_HAL_Driver/Src/stm32f3xx_hal_dma.c ****   }
 977              		.loc 1 553 54 is_stmt 0 view .LVU372
 978 00b8 226C     		ldr	r2, [r4, #64]
 553:Drivers/STM32F3xx_HAL_Driver/Src/stm32f3xx_hal_dma.c ****   }
 979              		.loc 1 553 47 view .LVU373
 980 00ba 0423     		movs	r3, #4
 981 00bc 9340     		lsls	r3, r3, r2
 553:Drivers/STM32F3xx_HAL_Driver/Src/stm32f3xx_hal_dma.c ****   }
 982              		.loc 1 553 32 view .LVU374
 983 00be 6B60     		str	r3, [r5, #4]
 984 00c0 F6E7     		b	.L57
 985              		.cfi_endproc
 986              	.LFE129:
 988              		.section	.text.HAL_DMA_IRQHandler,"ax",%progbits
 989              		.align	1
 990              		.global	HAL_DMA_IRQHandler
 991              		.syntax unified
 992              		.thumb
 993              		.thumb_func
 995              	HAL_DMA_IRQHandler:
 996              	.LVL62:
 997              	.LFB130:
 569:Drivers/STM32F3xx_HAL_Driver/Src/stm32f3xx_hal_dma.c **** 	uint32_t flag_it = hdma->DmaBaseAddress->ISR;
 998              		.loc 1 569 1 is_stmt 1 view -0
 999              		.cfi_startproc
 1000              		@ args = 0, pretend = 0, frame = 0
 1001              		@ frame_needed = 0, uses_anonymous_args = 0
 569:Drivers/STM32F3xx_HAL_Driver/Src/stm32f3xx_hal_dma.c **** 	uint32_t flag_it = hdma->DmaBaseAddress->ISR;
 1002              		.loc 1 569 1 is_stmt 0 view .LVU376
 1003 0000 38B5     		push	{r3, r4, r5, lr}
 1004              		.cfi_def_cfa_offset 16
 1005              		.cfi_offset 3, -16
 1006              		.cfi_offset 4, -12
 1007              		.cfi_offset 5, -8
 1008              		.cfi_offset 14, -4
 570:Drivers/STM32F3xx_HAL_Driver/Src/stm32f3xx_hal_dma.c ****   uint32_t source_it = hdma->Instance->CCR;
 1009              		.loc 1 570 2 is_stmt 1 view .LVU377
 570:Drivers/STM32F3xx_HAL_Driver/Src/stm32f3xx_hal_dma.c ****   uint32_t source_it = hdma->Instance->CCR;
 1010              		.loc 1 570 25 is_stmt 0 view .LVU378
 1011 0002 C36B     		ldr	r3, [r0, #60]
ARM GAS  C:\Users\cordi\AppData\Local\Temp\ccHp0T4h.s 			page 40


 570:Drivers/STM32F3xx_HAL_Driver/Src/stm32f3xx_hal_dma.c ****   uint32_t source_it = hdma->Instance->CCR;
 1012              		.loc 1 570 11 view .LVU379
 1013 0004 1A68     		ldr	r2, [r3]
 1014              	.LVL63:
 571:Drivers/STM32F3xx_HAL_Driver/Src/stm32f3xx_hal_dma.c ****           
 1015              		.loc 1 571 3 is_stmt 1 view .LVU380
 571:Drivers/STM32F3xx_HAL_Driver/Src/stm32f3xx_hal_dma.c ****           
 1016              		.loc 1 571 28 is_stmt 0 view .LVU381
 1017 0006 0468     		ldr	r4, [r0]
 571:Drivers/STM32F3xx_HAL_Driver/Src/stm32f3xx_hal_dma.c ****           
 1018              		.loc 1 571 12 view .LVU382
 1019 0008 2568     		ldr	r5, [r4]
 1020              	.LVL64:
 574:Drivers/STM32F3xx_HAL_Driver/Src/stm32f3xx_hal_dma.c ****   {
 1021              		.loc 1 574 3 is_stmt 1 view .LVU383
 574:Drivers/STM32F3xx_HAL_Driver/Src/stm32f3xx_hal_dma.c ****   {
 1022              		.loc 1 574 49 is_stmt 0 view .LVU384
 1023 000a 016C     		ldr	r1, [r0, #64]
 574:Drivers/STM32F3xx_HAL_Driver/Src/stm32f3xx_hal_dma.c ****   {
 1024              		.loc 1 574 42 view .LVU385
 1025 000c 0423     		movs	r3, #4
 1026 000e 8B40     		lsls	r3, r3, r1
 574:Drivers/STM32F3xx_HAL_Driver/Src/stm32f3xx_hal_dma.c ****   {
 1027              		.loc 1 574 6 view .LVU386
 1028 0010 1342     		tst	r3, r2
 1029 0012 13D0     		beq	.L63
 574:Drivers/STM32F3xx_HAL_Driver/Src/stm32f3xx_hal_dma.c ****   {
 1030              		.loc 1 574 67 discriminator 1 view .LVU387
 1031 0014 15F0040F 		tst	r5, #4
 1032 0018 10D0     		beq	.L63
 577:Drivers/STM32F3xx_HAL_Driver/Src/stm32f3xx_hal_dma.c ****   	{
 1033              		.loc 1 577 4 is_stmt 1 view .LVU388
 577:Drivers/STM32F3xx_HAL_Driver/Src/stm32f3xx_hal_dma.c ****   	{
 1034              		.loc 1 577 22 is_stmt 0 view .LVU389
 1035 001a 2368     		ldr	r3, [r4]
 577:Drivers/STM32F3xx_HAL_Driver/Src/stm32f3xx_hal_dma.c ****   	{
 1036              		.loc 1 577 6 view .LVU390
 1037 001c 13F0200F 		tst	r3, #32
 1038 0020 03D1     		bne	.L64
 580:Drivers/STM32F3xx_HAL_Driver/Src/stm32f3xx_hal_dma.c ****   	}
 1039              		.loc 1 580 5 is_stmt 1 view .LVU391
 580:Drivers/STM32F3xx_HAL_Driver/Src/stm32f3xx_hal_dma.c ****   	}
 1040              		.loc 1 580 19 is_stmt 0 view .LVU392
 1041 0022 2368     		ldr	r3, [r4]
 580:Drivers/STM32F3xx_HAL_Driver/Src/stm32f3xx_hal_dma.c ****   	}
 1042              		.loc 1 580 25 view .LVU393
 1043 0024 23F00403 		bic	r3, r3, #4
 1044 0028 2360     		str	r3, [r4]
 1045              	.L64:
 584:Drivers/STM32F3xx_HAL_Driver/Src/stm32f3xx_hal_dma.c ****   	
 1046              		.loc 1 584 4 is_stmt 1 view .LVU394
 584:Drivers/STM32F3xx_HAL_Driver/Src/stm32f3xx_hal_dma.c ****   	
 1047              		.loc 1 584 53 is_stmt 0 view .LVU395
 1048 002a 016C     		ldr	r1, [r0, #64]
 584:Drivers/STM32F3xx_HAL_Driver/Src/stm32f3xx_hal_dma.c ****   	
 1049              		.loc 1 584 8 view .LVU396
 1050 002c C26B     		ldr	r2, [r0, #60]
ARM GAS  C:\Users\cordi\AppData\Local\Temp\ccHp0T4h.s 			page 41


 1051              	.LVL65:
 584:Drivers/STM32F3xx_HAL_Driver/Src/stm32f3xx_hal_dma.c ****   	
 1052              		.loc 1 584 46 view .LVU397
 1053 002e 0423     		movs	r3, #4
 1054 0030 8B40     		lsls	r3, r3, r1
 584:Drivers/STM32F3xx_HAL_Driver/Src/stm32f3xx_hal_dma.c ****   	
 1055              		.loc 1 584 31 view .LVU398
 1056 0032 5360     		str	r3, [r2, #4]
 589:Drivers/STM32F3xx_HAL_Driver/Src/stm32f3xx_hal_dma.c ****   	{
 1057              		.loc 1 589 4 is_stmt 1 view .LVU399
 589:Drivers/STM32F3xx_HAL_Driver/Src/stm32f3xx_hal_dma.c ****   	{
 1058              		.loc 1 589 11 is_stmt 0 view .LVU400
 1059 0034 C36A     		ldr	r3, [r0, #44]
 589:Drivers/STM32F3xx_HAL_Driver/Src/stm32f3xx_hal_dma.c ****   	{
 1060              		.loc 1 589 6 view .LVU401
 1061 0036 03B1     		cbz	r3, .L62
 592:Drivers/STM32F3xx_HAL_Driver/Src/stm32f3xx_hal_dma.c ****   	}
 1062              		.loc 1 592 5 is_stmt 1 view .LVU402
 1063 0038 9847     		blx	r3
 1064              	.LVL66:
 1065              	.L62:
 648:Drivers/STM32F3xx_HAL_Driver/Src/stm32f3xx_hal_dma.c **** 
 1066              		.loc 1 648 1 is_stmt 0 view .LVU403
 1067 003a 38BD     		pop	{r3, r4, r5, pc}
 1068              	.LVL67:
 1069              	.L63:
 597:Drivers/STM32F3xx_HAL_Driver/Src/stm32f3xx_hal_dma.c ****   {
 1070              		.loc 1 597 8 is_stmt 1 view .LVU404
 597:Drivers/STM32F3xx_HAL_Driver/Src/stm32f3xx_hal_dma.c ****   {
 1071              		.loc 1 597 47 is_stmt 0 view .LVU405
 1072 003c 0223     		movs	r3, #2
 1073 003e 8B40     		lsls	r3, r3, r1
 597:Drivers/STM32F3xx_HAL_Driver/Src/stm32f3xx_hal_dma.c ****   {
 1074              		.loc 1 597 11 view .LVU406
 1075 0040 1342     		tst	r3, r2
 1076 0042 1AD0     		beq	.L66
 597:Drivers/STM32F3xx_HAL_Driver/Src/stm32f3xx_hal_dma.c ****   {
 1077              		.loc 1 597 72 discriminator 1 view .LVU407
 1078 0044 15F0020F 		tst	r5, #2
 1079 0048 17D0     		beq	.L66
 599:Drivers/STM32F3xx_HAL_Driver/Src/stm32f3xx_hal_dma.c ****   	{
 1080              		.loc 1 599 4 is_stmt 1 view .LVU408
 599:Drivers/STM32F3xx_HAL_Driver/Src/stm32f3xx_hal_dma.c ****   	{
 1081              		.loc 1 599 22 is_stmt 0 view .LVU409
 1082 004a 2368     		ldr	r3, [r4]
 599:Drivers/STM32F3xx_HAL_Driver/Src/stm32f3xx_hal_dma.c ****   	{
 1083              		.loc 1 599 6 view .LVU410
 1084 004c 13F0200F 		tst	r3, #32
 1085 0050 06D1     		bne	.L67
 603:Drivers/STM32F3xx_HAL_Driver/Src/stm32f3xx_hal_dma.c ****   		
 1086              		.loc 1 603 5 is_stmt 1 view .LVU411
 603:Drivers/STM32F3xx_HAL_Driver/Src/stm32f3xx_hal_dma.c ****   		
 1087              		.loc 1 603 19 is_stmt 0 view .LVU412
 1088 0052 2368     		ldr	r3, [r4]
 603:Drivers/STM32F3xx_HAL_Driver/Src/stm32f3xx_hal_dma.c ****   		
 1089              		.loc 1 603 25 view .LVU413
 1090 0054 23F00A03 		bic	r3, r3, #10
ARM GAS  C:\Users\cordi\AppData\Local\Temp\ccHp0T4h.s 			page 42


 1091 0058 2360     		str	r3, [r4]
 606:Drivers/STM32F3xx_HAL_Driver/Src/stm32f3xx_hal_dma.c ****   	}
 1092              		.loc 1 606 5 is_stmt 1 view .LVU414
 606:Drivers/STM32F3xx_HAL_Driver/Src/stm32f3xx_hal_dma.c ****   	}
 1093              		.loc 1 606 17 is_stmt 0 view .LVU415
 1094 005a 0123     		movs	r3, #1
 1095 005c 80F82130 		strb	r3, [r0, #33]
 1096              	.L67:
 610:Drivers/STM32F3xx_HAL_Driver/Src/stm32f3xx_hal_dma.c ****   	
 1097              		.loc 1 610 4 is_stmt 1 view .LVU416
 610:Drivers/STM32F3xx_HAL_Driver/Src/stm32f3xx_hal_dma.c ****   	
 1098              		.loc 1 610 53 is_stmt 0 view .LVU417
 1099 0060 016C     		ldr	r1, [r0, #64]
 610:Drivers/STM32F3xx_HAL_Driver/Src/stm32f3xx_hal_dma.c ****   	
 1100              		.loc 1 610 8 view .LVU418
 1101 0062 C26B     		ldr	r2, [r0, #60]
 1102              	.LVL68:
 610:Drivers/STM32F3xx_HAL_Driver/Src/stm32f3xx_hal_dma.c ****   	
 1103              		.loc 1 610 46 view .LVU419
 1104 0064 0223     		movs	r3, #2
 1105 0066 8B40     		lsls	r3, r3, r1
 610:Drivers/STM32F3xx_HAL_Driver/Src/stm32f3xx_hal_dma.c ****   	
 1106              		.loc 1 610 31 view .LVU420
 1107 0068 5360     		str	r3, [r2, #4]
 613:Drivers/STM32F3xx_HAL_Driver/Src/stm32f3xx_hal_dma.c ****   	
 1108              		.loc 1 613 4 is_stmt 1 view .LVU421
 613:Drivers/STM32F3xx_HAL_Driver/Src/stm32f3xx_hal_dma.c ****   	
 1109              		.loc 1 613 4 view .LVU422
 1110 006a 0023     		movs	r3, #0
 1111 006c 80F82030 		strb	r3, [r0, #32]
 613:Drivers/STM32F3xx_HAL_Driver/Src/stm32f3xx_hal_dma.c ****   	
 1112              		.loc 1 613 4 view .LVU423
 615:Drivers/STM32F3xx_HAL_Driver/Src/stm32f3xx_hal_dma.c ****   	{
 1113              		.loc 1 615 4 view .LVU424
 615:Drivers/STM32F3xx_HAL_Driver/Src/stm32f3xx_hal_dma.c ****   	{
 1114              		.loc 1 615 11 is_stmt 0 view .LVU425
 1115 0070 836A     		ldr	r3, [r0, #40]
 615:Drivers/STM32F3xx_HAL_Driver/Src/stm32f3xx_hal_dma.c ****   	{
 1116              		.loc 1 615 6 view .LVU426
 1117 0072 002B     		cmp	r3, #0
 1118 0074 E1D0     		beq	.L62
 618:Drivers/STM32F3xx_HAL_Driver/Src/stm32f3xx_hal_dma.c ****   	}
 1119              		.loc 1 618 5 is_stmt 1 view .LVU427
 1120 0076 9847     		blx	r3
 1121              	.LVL69:
 618:Drivers/STM32F3xx_HAL_Driver/Src/stm32f3xx_hal_dma.c ****   	}
 1122              		.loc 1 618 5 is_stmt 0 view .LVU428
 1123 0078 DFE7     		b	.L62
 1124              	.LVL70:
 1125              	.L66:
 623:Drivers/STM32F3xx_HAL_Driver/Src/stm32f3xx_hal_dma.c ****   {
 1126              		.loc 1 623 8 is_stmt 1 view .LVU429
 623:Drivers/STM32F3xx_HAL_Driver/Src/stm32f3xx_hal_dma.c ****   {
 1127              		.loc 1 623 48 is_stmt 0 view .LVU430
 1128 007a 0823     		movs	r3, #8
 1129 007c 8B40     		lsls	r3, r3, r1
 623:Drivers/STM32F3xx_HAL_Driver/Src/stm32f3xx_hal_dma.c ****   {
ARM GAS  C:\Users\cordi\AppData\Local\Temp\ccHp0T4h.s 			page 43


 1130              		.loc 1 623 11 view .LVU431
 1131 007e 1342     		tst	r3, r2
 1132 0080 DBD0     		beq	.L62
 623:Drivers/STM32F3xx_HAL_Driver/Src/stm32f3xx_hal_dma.c ****   {
 1133              		.loc 1 623 73 discriminator 1 view .LVU432
 1134 0082 15F0080F 		tst	r5, #8
 1135 0086 D8D0     		beq	.L62
 628:Drivers/STM32F3xx_HAL_Driver/Src/stm32f3xx_hal_dma.c ****     
 1136              		.loc 1 628 5 is_stmt 1 view .LVU433
 628:Drivers/STM32F3xx_HAL_Driver/Src/stm32f3xx_hal_dma.c ****     
 1137              		.loc 1 628 19 is_stmt 0 view .LVU434
 1138 0088 2368     		ldr	r3, [r4]
 628:Drivers/STM32F3xx_HAL_Driver/Src/stm32f3xx_hal_dma.c ****     
 1139              		.loc 1 628 25 view .LVU435
 1140 008a 23F00E03 		bic	r3, r3, #14
 1141 008e 2360     		str	r3, [r4]
 631:Drivers/STM32F3xx_HAL_Driver/Src/stm32f3xx_hal_dma.c ****     
 1142              		.loc 1 631 5 is_stmt 1 view .LVU436
 631:Drivers/STM32F3xx_HAL_Driver/Src/stm32f3xx_hal_dma.c ****     
 1143              		.loc 1 631 54 is_stmt 0 view .LVU437
 1144 0090 026C     		ldr	r2, [r0, #64]
 1145              	.LVL71:
 631:Drivers/STM32F3xx_HAL_Driver/Src/stm32f3xx_hal_dma.c ****     
 1146              		.loc 1 631 9 view .LVU438
 1147 0092 C16B     		ldr	r1, [r0, #60]
 631:Drivers/STM32F3xx_HAL_Driver/Src/stm32f3xx_hal_dma.c ****     
 1148              		.loc 1 631 47 view .LVU439
 1149 0094 0123     		movs	r3, #1
 1150 0096 03FA02F2 		lsl	r2, r3, r2
 631:Drivers/STM32F3xx_HAL_Driver/Src/stm32f3xx_hal_dma.c ****     
 1151              		.loc 1 631 32 view .LVU440
 1152 009a 4A60     		str	r2, [r1, #4]
 634:Drivers/STM32F3xx_HAL_Driver/Src/stm32f3xx_hal_dma.c ****     
 1153              		.loc 1 634 5 is_stmt 1 view .LVU441
 634:Drivers/STM32F3xx_HAL_Driver/Src/stm32f3xx_hal_dma.c ****     
 1154              		.loc 1 634 21 is_stmt 0 view .LVU442
 1155 009c 8363     		str	r3, [r0, #56]
 637:Drivers/STM32F3xx_HAL_Driver/Src/stm32f3xx_hal_dma.c ****     
 1156              		.loc 1 637 5 is_stmt 1 view .LVU443
 637:Drivers/STM32F3xx_HAL_Driver/Src/stm32f3xx_hal_dma.c ****     
 1157              		.loc 1 637 17 is_stmt 0 view .LVU444
 1158 009e 80F82130 		strb	r3, [r0, #33]
 640:Drivers/STM32F3xx_HAL_Driver/Src/stm32f3xx_hal_dma.c ****     
 1159              		.loc 1 640 5 is_stmt 1 view .LVU445
 640:Drivers/STM32F3xx_HAL_Driver/Src/stm32f3xx_hal_dma.c ****     
 1160              		.loc 1 640 5 view .LVU446
 1161 00a2 0023     		movs	r3, #0
 1162 00a4 80F82030 		strb	r3, [r0, #32]
 640:Drivers/STM32F3xx_HAL_Driver/Src/stm32f3xx_hal_dma.c ****     
 1163              		.loc 1 640 5 view .LVU447
 642:Drivers/STM32F3xx_HAL_Driver/Src/stm32f3xx_hal_dma.c ****     {
 1164              		.loc 1 642 5 view .LVU448
 642:Drivers/STM32F3xx_HAL_Driver/Src/stm32f3xx_hal_dma.c ****     {
 1165              		.loc 1 642 12 is_stmt 0 view .LVU449
 1166 00a8 036B     		ldr	r3, [r0, #48]
 642:Drivers/STM32F3xx_HAL_Driver/Src/stm32f3xx_hal_dma.c ****     {
 1167              		.loc 1 642 7 view .LVU450
ARM GAS  C:\Users\cordi\AppData\Local\Temp\ccHp0T4h.s 			page 44


 1168 00aa 002B     		cmp	r3, #0
 1169 00ac C5D0     		beq	.L62
 645:Drivers/STM32F3xx_HAL_Driver/Src/stm32f3xx_hal_dma.c ****     }
 1170              		.loc 1 645 6 is_stmt 1 view .LVU451
 1171 00ae 9847     		blx	r3
 1172              	.LVL72:
 648:Drivers/STM32F3xx_HAL_Driver/Src/stm32f3xx_hal_dma.c **** 
 1173              		.loc 1 648 1 is_stmt 0 view .LVU452
 1174 00b0 C3E7     		b	.L62
 1175              		.cfi_endproc
 1176              	.LFE130:
 1178              		.section	.text.HAL_DMA_RegisterCallback,"ax",%progbits
 1179              		.align	1
 1180              		.global	HAL_DMA_RegisterCallback
 1181              		.syntax unified
 1182              		.thumb
 1183              		.thumb_func
 1185              	HAL_DMA_RegisterCallback:
 1186              	.LVL73:
 1187              	.LFB131:
 661:Drivers/STM32F3xx_HAL_Driver/Src/stm32f3xx_hal_dma.c ****   HAL_StatusTypeDef status = HAL_OK;
 1188              		.loc 1 661 1 is_stmt 1 view -0
 1189              		.cfi_startproc
 1190              		@ args = 0, pretend = 0, frame = 0
 1191              		@ frame_needed = 0, uses_anonymous_args = 0
 1192              		@ link register save eliminated.
 661:Drivers/STM32F3xx_HAL_Driver/Src/stm32f3xx_hal_dma.c ****   HAL_StatusTypeDef status = HAL_OK;
 1193              		.loc 1 661 1 is_stmt 0 view .LVU454
 1194 0000 0346     		mov	r3, r0
 662:Drivers/STM32F3xx_HAL_Driver/Src/stm32f3xx_hal_dma.c ****   
 1195              		.loc 1 662 3 is_stmt 1 view .LVU455
 1196              	.LVL74:
 665:Drivers/STM32F3xx_HAL_Driver/Src/stm32f3xx_hal_dma.c ****   
 1197              		.loc 1 665 3 view .LVU456
 665:Drivers/STM32F3xx_HAL_Driver/Src/stm32f3xx_hal_dma.c ****   
 1198              		.loc 1 665 3 view .LVU457
 1199 0002 90F82000 		ldrb	r0, [r0, #32]	@ zero_extendqisi2
 1200              	.LVL75:
 665:Drivers/STM32F3xx_HAL_Driver/Src/stm32f3xx_hal_dma.c ****   
 1201              		.loc 1 665 3 is_stmt 0 view .LVU458
 1202 0006 0128     		cmp	r0, #1
 1203 0008 1DD0     		beq	.L77
 665:Drivers/STM32F3xx_HAL_Driver/Src/stm32f3xx_hal_dma.c ****   
 1204              		.loc 1 665 3 is_stmt 1 discriminator 2 view .LVU459
 1205 000a 0120     		movs	r0, #1
 1206 000c 83F82000 		strb	r0, [r3, #32]
 665:Drivers/STM32F3xx_HAL_Driver/Src/stm32f3xx_hal_dma.c ****   
 1207              		.loc 1 665 3 discriminator 2 view .LVU460
 667:Drivers/STM32F3xx_HAL_Driver/Src/stm32f3xx_hal_dma.c ****   {
 1208              		.loc 1 667 3 discriminator 2 view .LVU461
 667:Drivers/STM32F3xx_HAL_Driver/Src/stm32f3xx_hal_dma.c ****   {
 1209              		.loc 1 667 33 is_stmt 0 discriminator 2 view .LVU462
 1210 0010 93F82100 		ldrb	r0, [r3, #33]	@ zero_extendqisi2
 667:Drivers/STM32F3xx_HAL_Driver/Src/stm32f3xx_hal_dma.c ****   {
 1211              		.loc 1 667 5 discriminator 2 view .LVU463
 1212 0014 0128     		cmp	r0, #1
 1213 0016 04D0     		beq	.L80
ARM GAS  C:\Users\cordi\AppData\Local\Temp\ccHp0T4h.s 			page 45


 694:Drivers/STM32F3xx_HAL_Driver/Src/stm32f3xx_hal_dma.c ****   } 
 1214              		.loc 1 694 12 view .LVU464
 1215 0018 0120     		movs	r0, #1
 1216              	.L71:
 1217              	.LVL76:
 698:Drivers/STM32F3xx_HAL_Driver/Src/stm32f3xx_hal_dma.c ****   
 1218              		.loc 1 698 3 is_stmt 1 view .LVU465
 698:Drivers/STM32F3xx_HAL_Driver/Src/stm32f3xx_hal_dma.c ****   
 1219              		.loc 1 698 3 view .LVU466
 1220 001a 0022     		movs	r2, #0
 1221              	.LVL77:
 698:Drivers/STM32F3xx_HAL_Driver/Src/stm32f3xx_hal_dma.c ****   
 1222              		.loc 1 698 3 is_stmt 0 view .LVU467
 1223 001c 83F82020 		strb	r2, [r3, #32]
 698:Drivers/STM32F3xx_HAL_Driver/Src/stm32f3xx_hal_dma.c ****   
 1224              		.loc 1 698 3 is_stmt 1 view .LVU468
 700:Drivers/STM32F3xx_HAL_Driver/Src/stm32f3xx_hal_dma.c **** }
 1225              		.loc 1 700 3 view .LVU469
 700:Drivers/STM32F3xx_HAL_Driver/Src/stm32f3xx_hal_dma.c **** }
 1226              		.loc 1 700 10 is_stmt 0 view .LVU470
 1227 0020 7047     		bx	lr
 1228              	.LVL78:
 1229              	.L80:
 669:Drivers/STM32F3xx_HAL_Driver/Src/stm32f3xx_hal_dma.c ****     {
 1230              		.loc 1 669 5 is_stmt 1 view .LVU471
 1231 0022 0329     		cmp	r1, #3
 1232 0024 F9D8     		bhi	.L71
 1233 0026 DFE801F0 		tbb	[pc, r1]
 1234              	.L73:
 1235 002a 02       		.byte	(.L76-.L73)/2
 1236 002b 05       		.byte	(.L75-.L73)/2
 1237 002c 08       		.byte	(.L74-.L73)/2
 1238 002d 0B       		.byte	(.L72-.L73)/2
 1239              		.p2align 1
 1240              	.L76:
 672:Drivers/STM32F3xx_HAL_Driver/Src/stm32f3xx_hal_dma.c ****            break;
 1241              		.loc 1 672 12 view .LVU472
 672:Drivers/STM32F3xx_HAL_Driver/Src/stm32f3xx_hal_dma.c ****            break;
 1242              		.loc 1 672 35 is_stmt 0 view .LVU473
 1243 002e 9A62     		str	r2, [r3, #40]
 673:Drivers/STM32F3xx_HAL_Driver/Src/stm32f3xx_hal_dma.c ****        
 1244              		.loc 1 673 12 is_stmt 1 view .LVU474
 662:Drivers/STM32F3xx_HAL_Driver/Src/stm32f3xx_hal_dma.c ****   
 1245              		.loc 1 662 21 is_stmt 0 view .LVU475
 1246 0030 0846     		mov	r0, r1
 673:Drivers/STM32F3xx_HAL_Driver/Src/stm32f3xx_hal_dma.c ****        
 1247              		.loc 1 673 12 view .LVU476
 1248 0032 F2E7     		b	.L71
 1249              	.L75:
 676:Drivers/STM32F3xx_HAL_Driver/Src/stm32f3xx_hal_dma.c ****            break;         
 1250              		.loc 1 676 12 is_stmt 1 view .LVU477
 676:Drivers/STM32F3xx_HAL_Driver/Src/stm32f3xx_hal_dma.c ****            break;         
 1251              		.loc 1 676 39 is_stmt 0 view .LVU478
 1252 0034 DA62     		str	r2, [r3, #44]
 677:Drivers/STM32F3xx_HAL_Driver/Src/stm32f3xx_hal_dma.c **** 
 1253              		.loc 1 677 12 is_stmt 1 view .LVU479
 662:Drivers/STM32F3xx_HAL_Driver/Src/stm32f3xx_hal_dma.c ****   
ARM GAS  C:\Users\cordi\AppData\Local\Temp\ccHp0T4h.s 			page 46


 1254              		.loc 1 662 21 is_stmt 0 view .LVU480
 1255 0036 0020     		movs	r0, #0
 677:Drivers/STM32F3xx_HAL_Driver/Src/stm32f3xx_hal_dma.c **** 
 1256              		.loc 1 677 12 view .LVU481
 1257 0038 EFE7     		b	.L71
 1258              	.L74:
 680:Drivers/STM32F3xx_HAL_Driver/Src/stm32f3xx_hal_dma.c ****            break;         
 1259              		.loc 1 680 12 is_stmt 1 view .LVU482
 680:Drivers/STM32F3xx_HAL_Driver/Src/stm32f3xx_hal_dma.c ****            break;         
 1260              		.loc 1 680 36 is_stmt 0 view .LVU483
 1261 003a 1A63     		str	r2, [r3, #48]
 681:Drivers/STM32F3xx_HAL_Driver/Src/stm32f3xx_hal_dma.c ****            
 1262              		.loc 1 681 12 is_stmt 1 view .LVU484
 662:Drivers/STM32F3xx_HAL_Driver/Src/stm32f3xx_hal_dma.c ****   
 1263              		.loc 1 662 21 is_stmt 0 view .LVU485
 1264 003c 0020     		movs	r0, #0
 681:Drivers/STM32F3xx_HAL_Driver/Src/stm32f3xx_hal_dma.c ****            
 1265              		.loc 1 681 12 view .LVU486
 1266 003e ECE7     		b	.L71
 1267              	.L72:
 684:Drivers/STM32F3xx_HAL_Driver/Src/stm32f3xx_hal_dma.c ****            break; 
 1268              		.loc 1 684 12 is_stmt 1 view .LVU487
 684:Drivers/STM32F3xx_HAL_Driver/Src/stm32f3xx_hal_dma.c ****            break; 
 1269              		.loc 1 684 36 is_stmt 0 view .LVU488
 1270 0040 5A63     		str	r2, [r3, #52]
 685:Drivers/STM32F3xx_HAL_Driver/Src/stm32f3xx_hal_dma.c ****            
 1271              		.loc 1 685 12 is_stmt 1 view .LVU489
 662:Drivers/STM32F3xx_HAL_Driver/Src/stm32f3xx_hal_dma.c ****   
 1272              		.loc 1 662 21 is_stmt 0 view .LVU490
 1273 0042 0020     		movs	r0, #0
 685:Drivers/STM32F3xx_HAL_Driver/Src/stm32f3xx_hal_dma.c ****            
 1274              		.loc 1 685 12 view .LVU491
 1275 0044 E9E7     		b	.L71
 1276              	.L77:
 665:Drivers/STM32F3xx_HAL_Driver/Src/stm32f3xx_hal_dma.c ****   
 1277              		.loc 1 665 3 view .LVU492
 1278 0046 0220     		movs	r0, #2
 701:Drivers/STM32F3xx_HAL_Driver/Src/stm32f3xx_hal_dma.c **** 
 1279              		.loc 1 701 1 view .LVU493
 1280 0048 7047     		bx	lr
 1281              		.cfi_endproc
 1282              	.LFE131:
 1284              		.section	.text.HAL_DMA_UnRegisterCallback,"ax",%progbits
 1285              		.align	1
 1286              		.global	HAL_DMA_UnRegisterCallback
 1287              		.syntax unified
 1288              		.thumb
 1289              		.thumb_func
 1291              	HAL_DMA_UnRegisterCallback:
 1292              	.LVL79:
 1293              	.LFB132:
 712:Drivers/STM32F3xx_HAL_Driver/Src/stm32f3xx_hal_dma.c ****   HAL_StatusTypeDef status = HAL_OK;
 1294              		.loc 1 712 1 is_stmt 1 view -0
 1295              		.cfi_startproc
 1296              		@ args = 0, pretend = 0, frame = 0
 1297              		@ frame_needed = 0, uses_anonymous_args = 0
 1298              		@ link register save eliminated.
ARM GAS  C:\Users\cordi\AppData\Local\Temp\ccHp0T4h.s 			page 47


 712:Drivers/STM32F3xx_HAL_Driver/Src/stm32f3xx_hal_dma.c ****   HAL_StatusTypeDef status = HAL_OK;
 1299              		.loc 1 712 1 is_stmt 0 view .LVU495
 1300 0000 0346     		mov	r3, r0
 713:Drivers/STM32F3xx_HAL_Driver/Src/stm32f3xx_hal_dma.c **** 
 1301              		.loc 1 713 3 is_stmt 1 view .LVU496
 1302              	.LVL80:
 716:Drivers/STM32F3xx_HAL_Driver/Src/stm32f3xx_hal_dma.c ****   
 1303              		.loc 1 716 3 view .LVU497
 716:Drivers/STM32F3xx_HAL_Driver/Src/stm32f3xx_hal_dma.c ****   
 1304              		.loc 1 716 3 view .LVU498
 1305 0002 90F82020 		ldrb	r2, [r0, #32]	@ zero_extendqisi2
 1306 0006 012A     		cmp	r2, #1
 1307 0008 25D0     		beq	.L90
 716:Drivers/STM32F3xx_HAL_Driver/Src/stm32f3xx_hal_dma.c ****   
 1308              		.loc 1 716 3 discriminator 2 view .LVU499
 1309 000a 0122     		movs	r2, #1
 1310 000c 80F82020 		strb	r2, [r0, #32]
 716:Drivers/STM32F3xx_HAL_Driver/Src/stm32f3xx_hal_dma.c ****   
 1311              		.loc 1 716 3 discriminator 2 view .LVU500
 718:Drivers/STM32F3xx_HAL_Driver/Src/stm32f3xx_hal_dma.c ****   {
 1312              		.loc 1 718 3 discriminator 2 view .LVU501
 718:Drivers/STM32F3xx_HAL_Driver/Src/stm32f3xx_hal_dma.c ****   {
 1313              		.loc 1 718 33 is_stmt 0 discriminator 2 view .LVU502
 1314 0010 90F82100 		ldrb	r0, [r0, #33]	@ zero_extendqisi2
 1315              	.LVL81:
 718:Drivers/STM32F3xx_HAL_Driver/Src/stm32f3xx_hal_dma.c ****   {
 1316              		.loc 1 718 5 discriminator 2 view .LVU503
 1317 0014 9042     		cmp	r0, r2
 1318 0016 04D0     		beq	.L93
 752:Drivers/STM32F3xx_HAL_Driver/Src/stm32f3xx_hal_dma.c ****   } 
 1319              		.loc 1 752 12 view .LVU504
 1320 0018 0120     		movs	r0, #1
 1321              	.L83:
 1322              	.LVL82:
 756:Drivers/STM32F3xx_HAL_Driver/Src/stm32f3xx_hal_dma.c ****   
 1323              		.loc 1 756 3 is_stmt 1 view .LVU505
 756:Drivers/STM32F3xx_HAL_Driver/Src/stm32f3xx_hal_dma.c ****   
 1324              		.loc 1 756 3 view .LVU506
 1325 001a 0022     		movs	r2, #0
 1326 001c 83F82020 		strb	r2, [r3, #32]
 756:Drivers/STM32F3xx_HAL_Driver/Src/stm32f3xx_hal_dma.c ****   
 1327              		.loc 1 756 3 view .LVU507
 758:Drivers/STM32F3xx_HAL_Driver/Src/stm32f3xx_hal_dma.c **** }
 1328              		.loc 1 758 3 view .LVU508
 758:Drivers/STM32F3xx_HAL_Driver/Src/stm32f3xx_hal_dma.c **** }
 1329              		.loc 1 758 10 is_stmt 0 view .LVU509
 1330 0020 7047     		bx	lr
 1331              	.LVL83:
 1332              	.L93:
 720:Drivers/STM32F3xx_HAL_Driver/Src/stm32f3xx_hal_dma.c ****     {
 1333              		.loc 1 720 5 is_stmt 1 view .LVU510
 1334 0022 0429     		cmp	r1, #4
 1335 0024 F9D8     		bhi	.L83
 1336 0026 DFE801F0 		tbb	[pc, r1]
 1337              	.L85:
 1338 002a 03       		.byte	(.L89-.L85)/2
 1339 002b 07       		.byte	(.L88-.L85)/2
ARM GAS  C:\Users\cordi\AppData\Local\Temp\ccHp0T4h.s 			page 48


 1340 002c 0A       		.byte	(.L87-.L85)/2
 1341 002d 0D       		.byte	(.L86-.L85)/2
 1342 002e 10       		.byte	(.L84-.L85)/2
 1343 002f 00       		.p2align 1
 1344              	.L89:
 723:Drivers/STM32F3xx_HAL_Driver/Src/stm32f3xx_hal_dma.c ****            break;
 1345              		.loc 1 723 12 view .LVU511
 723:Drivers/STM32F3xx_HAL_Driver/Src/stm32f3xx_hal_dma.c ****            break;
 1346              		.loc 1 723 35 is_stmt 0 view .LVU512
 1347 0030 0022     		movs	r2, #0
 1348 0032 9A62     		str	r2, [r3, #40]
 724:Drivers/STM32F3xx_HAL_Driver/Src/stm32f3xx_hal_dma.c ****        
 1349              		.loc 1 724 12 is_stmt 1 view .LVU513
 713:Drivers/STM32F3xx_HAL_Driver/Src/stm32f3xx_hal_dma.c **** 
 1350              		.loc 1 713 21 is_stmt 0 view .LVU514
 1351 0034 0846     		mov	r0, r1
 724:Drivers/STM32F3xx_HAL_Driver/Src/stm32f3xx_hal_dma.c ****        
 1352              		.loc 1 724 12 view .LVU515
 1353 0036 F0E7     		b	.L83
 1354              	.L88:
 727:Drivers/STM32F3xx_HAL_Driver/Src/stm32f3xx_hal_dma.c ****            break;         
 1355              		.loc 1 727 12 is_stmt 1 view .LVU516
 727:Drivers/STM32F3xx_HAL_Driver/Src/stm32f3xx_hal_dma.c ****            break;         
 1356              		.loc 1 727 39 is_stmt 0 view .LVU517
 1357 0038 0020     		movs	r0, #0
 1358 003a D862     		str	r0, [r3, #44]
 728:Drivers/STM32F3xx_HAL_Driver/Src/stm32f3xx_hal_dma.c **** 
 1359              		.loc 1 728 12 is_stmt 1 view .LVU518
 1360 003c EDE7     		b	.L83
 1361              	.L87:
 731:Drivers/STM32F3xx_HAL_Driver/Src/stm32f3xx_hal_dma.c ****            break;         
 1362              		.loc 1 731 12 view .LVU519
 731:Drivers/STM32F3xx_HAL_Driver/Src/stm32f3xx_hal_dma.c ****            break;         
 1363              		.loc 1 731 36 is_stmt 0 view .LVU520
 1364 003e 0020     		movs	r0, #0
 1365 0040 1863     		str	r0, [r3, #48]
 732:Drivers/STM32F3xx_HAL_Driver/Src/stm32f3xx_hal_dma.c ****            
 1366              		.loc 1 732 12 is_stmt 1 view .LVU521
 1367 0042 EAE7     		b	.L83
 1368              	.L86:
 735:Drivers/STM32F3xx_HAL_Driver/Src/stm32f3xx_hal_dma.c ****            break; 
 1369              		.loc 1 735 12 view .LVU522
 735:Drivers/STM32F3xx_HAL_Driver/Src/stm32f3xx_hal_dma.c ****            break; 
 1370              		.loc 1 735 36 is_stmt 0 view .LVU523
 1371 0044 0020     		movs	r0, #0
 1372 0046 5863     		str	r0, [r3, #52]
 736:Drivers/STM32F3xx_HAL_Driver/Src/stm32f3xx_hal_dma.c ****      
 1373              		.loc 1 736 12 is_stmt 1 view .LVU524
 1374 0048 E7E7     		b	.L83
 1375              	.L84:
 739:Drivers/STM32F3xx_HAL_Driver/Src/stm32f3xx_hal_dma.c ****            hdma->XferHalfCpltCallback = NULL;
 1376              		.loc 1 739 12 view .LVU525
 739:Drivers/STM32F3xx_HAL_Driver/Src/stm32f3xx_hal_dma.c ****            hdma->XferHalfCpltCallback = NULL;
 1377              		.loc 1 739 35 is_stmt 0 view .LVU526
 1378 004a 0020     		movs	r0, #0
 1379 004c 9862     		str	r0, [r3, #40]
 740:Drivers/STM32F3xx_HAL_Driver/Src/stm32f3xx_hal_dma.c ****            hdma->XferErrorCallback = NULL;
ARM GAS  C:\Users\cordi\AppData\Local\Temp\ccHp0T4h.s 			page 49


 1380              		.loc 1 740 12 is_stmt 1 view .LVU527
 740:Drivers/STM32F3xx_HAL_Driver/Src/stm32f3xx_hal_dma.c ****            hdma->XferErrorCallback = NULL;
 1381              		.loc 1 740 39 is_stmt 0 view .LVU528
 1382 004e D862     		str	r0, [r3, #44]
 741:Drivers/STM32F3xx_HAL_Driver/Src/stm32f3xx_hal_dma.c ****            hdma->XferAbortCallback = NULL;
 1383              		.loc 1 741 12 is_stmt 1 view .LVU529
 741:Drivers/STM32F3xx_HAL_Driver/Src/stm32f3xx_hal_dma.c ****            hdma->XferAbortCallback = NULL;
 1384              		.loc 1 741 36 is_stmt 0 view .LVU530
 1385 0050 1863     		str	r0, [r3, #48]
 742:Drivers/STM32F3xx_HAL_Driver/Src/stm32f3xx_hal_dma.c ****            break; 
 1386              		.loc 1 742 12 is_stmt 1 view .LVU531
 742:Drivers/STM32F3xx_HAL_Driver/Src/stm32f3xx_hal_dma.c ****            break; 
 1387              		.loc 1 742 36 is_stmt 0 view .LVU532
 1388 0052 5863     		str	r0, [r3, #52]
 743:Drivers/STM32F3xx_HAL_Driver/Src/stm32f3xx_hal_dma.c ****      
 1389              		.loc 1 743 12 is_stmt 1 view .LVU533
 1390 0054 E1E7     		b	.L83
 1391              	.LVL84:
 1392              	.L90:
 716:Drivers/STM32F3xx_HAL_Driver/Src/stm32f3xx_hal_dma.c ****   
 1393              		.loc 1 716 3 is_stmt 0 view .LVU534
 1394 0056 0220     		movs	r0, #2
 1395              	.LVL85:
 759:Drivers/STM32F3xx_HAL_Driver/Src/stm32f3xx_hal_dma.c **** 
 1396              		.loc 1 759 1 view .LVU535
 1397 0058 7047     		bx	lr
 1398              		.cfi_endproc
 1399              	.LFE132:
 1401              		.section	.text.HAL_DMA_GetState,"ax",%progbits
 1402              		.align	1
 1403              		.global	HAL_DMA_GetState
 1404              		.syntax unified
 1405              		.thumb
 1406              		.thumb_func
 1408              	HAL_DMA_GetState:
 1409              	.LVL86:
 1410              	.LFB133:
 788:Drivers/STM32F3xx_HAL_Driver/Src/stm32f3xx_hal_dma.c ****   return hdma->State;
 1411              		.loc 1 788 1 is_stmt 1 view -0
 1412              		.cfi_startproc
 1413              		@ args = 0, pretend = 0, frame = 0
 1414              		@ frame_needed = 0, uses_anonymous_args = 0
 1415              		@ link register save eliminated.
 789:Drivers/STM32F3xx_HAL_Driver/Src/stm32f3xx_hal_dma.c **** }
 1416              		.loc 1 789 3 view .LVU537
 790:Drivers/STM32F3xx_HAL_Driver/Src/stm32f3xx_hal_dma.c **** 
 1417              		.loc 1 790 1 is_stmt 0 view .LVU538
 1418 0000 90F82100 		ldrb	r0, [r0, #33]	@ zero_extendqisi2
 1419              	.LVL87:
 790:Drivers/STM32F3xx_HAL_Driver/Src/stm32f3xx_hal_dma.c **** 
 1420              		.loc 1 790 1 view .LVU539
 1421 0004 7047     		bx	lr
 1422              		.cfi_endproc
 1423              	.LFE133:
 1425              		.section	.text.HAL_DMA_GetError,"ax",%progbits
 1426              		.align	1
 1427              		.global	HAL_DMA_GetError
ARM GAS  C:\Users\cordi\AppData\Local\Temp\ccHp0T4h.s 			page 50


 1428              		.syntax unified
 1429              		.thumb
 1430              		.thumb_func
 1432              	HAL_DMA_GetError:
 1433              	.LVL88:
 1434              	.LFB134:
 799:Drivers/STM32F3xx_HAL_Driver/Src/stm32f3xx_hal_dma.c ****   return hdma->ErrorCode;
 1435              		.loc 1 799 1 is_stmt 1 view -0
 1436              		.cfi_startproc
 1437              		@ args = 0, pretend = 0, frame = 0
 1438              		@ frame_needed = 0, uses_anonymous_args = 0
 1439              		@ link register save eliminated.
 800:Drivers/STM32F3xx_HAL_Driver/Src/stm32f3xx_hal_dma.c **** }
 1440              		.loc 1 800 3 view .LVU541
 800:Drivers/STM32F3xx_HAL_Driver/Src/stm32f3xx_hal_dma.c **** }
 1441              		.loc 1 800 14 is_stmt 0 view .LVU542
 1442 0000 806B     		ldr	r0, [r0, #56]
 1443              	.LVL89:
 801:Drivers/STM32F3xx_HAL_Driver/Src/stm32f3xx_hal_dma.c **** 
 1444              		.loc 1 801 1 view .LVU543
 1445 0002 7047     		bx	lr
 1446              		.cfi_endproc
 1447              	.LFE134:
 1449              		.text
 1450              	.Letext0:
 1451              		.file 2 "c:\\program files (x86)\\arm gnu toolchain arm-none-eabi\\12.2 mpacbti-bet1\\arm-none-eab
 1452              		.file 3 "c:\\program files (x86)\\arm gnu toolchain arm-none-eabi\\12.2 mpacbti-bet1\\arm-none-eab
 1453              		.file 4 "Drivers/CMSIS/Device/ST/STM32F3xx/Include/stm32f334x8.h"
 1454              		.file 5 "Drivers/CMSIS/Device/ST/STM32F3xx/Include/stm32f3xx.h"
 1455              		.file 6 "Drivers/STM32F3xx_HAL_Driver/Inc/stm32f3xx_hal_def.h"
 1456              		.file 7 "Drivers/STM32F3xx_HAL_Driver/Inc/stm32f3xx_hal_dma.h"
 1457              		.file 8 "Drivers/STM32F3xx_HAL_Driver/Inc/stm32f3xx_hal.h"
ARM GAS  C:\Users\cordi\AppData\Local\Temp\ccHp0T4h.s 			page 51

