ARM GAS  C:\Users\cordi\AppData\Local\Temp\ccQk3OPa.s 			page 1


   1              		.cpu cortex-m4
   2              		.arch armv7e-m
   3              		.fpu fpv4-sp-d16
   4              		.eabi_attribute 27, 1
   5              		.eabi_attribute 28, 1
   6              		.eabi_attribute 20, 1
   7              		.eabi_attribute 21, 1
   8              		.eabi_attribute 23, 3
   9              		.eabi_attribute 24, 1
  10              		.eabi_attribute 25, 1
  11              		.eabi_attribute 26, 1
  12              		.eabi_attribute 30, 1
  13              		.eabi_attribute 34, 1
  14              		.eabi_attribute 18, 4
  15              		.file	"usart.c"
  16              		.text
  17              	.Ltext0:
  18              		.cfi_sections	.debug_frame
  19              		.file 1 "Core/Src/usart.c"
  20              		.section	.text.MX_USART1_UART_Init,"ax",%progbits
  21              		.align	1
  22              		.global	MX_USART1_UART_Init
  23              		.syntax unified
  24              		.thumb
  25              		.thumb_func
  27              	MX_USART1_UART_Init:
  28              	.LFB123:
   1:Core/Src/usart.c **** /* USER CODE BEGIN Header */
   2:Core/Src/usart.c **** /**
   3:Core/Src/usart.c ****   ******************************************************************************
   4:Core/Src/usart.c ****   * @file    usart.c
   5:Core/Src/usart.c ****   * @brief   This file provides code for the configuration
   6:Core/Src/usart.c ****   *          of the USART instances.
   7:Core/Src/usart.c ****   ******************************************************************************
   8:Core/Src/usart.c ****   * @attention
   9:Core/Src/usart.c ****   *
  10:Core/Src/usart.c ****   * Copyright (c) 2023 STMicroelectronics.
  11:Core/Src/usart.c ****   * All rights reserved.
  12:Core/Src/usart.c ****   *
  13:Core/Src/usart.c ****   * This software is licensed under terms that can be found in the LICENSE file
  14:Core/Src/usart.c ****   * in the root directory of this software component.
  15:Core/Src/usart.c ****   * If no LICENSE file comes with this software, it is provided AS-IS.
  16:Core/Src/usart.c ****   *
  17:Core/Src/usart.c ****   ******************************************************************************
  18:Core/Src/usart.c ****   */
  19:Core/Src/usart.c **** /* USER CODE END Header */
  20:Core/Src/usart.c **** /* Includes ------------------------------------------------------------------*/
  21:Core/Src/usart.c **** #include "usart.h"
  22:Core/Src/usart.c **** 
  23:Core/Src/usart.c **** /* USER CODE BEGIN 0 */
  24:Core/Src/usart.c **** 
  25:Core/Src/usart.c **** /* USER CODE END 0 */
  26:Core/Src/usart.c **** 
  27:Core/Src/usart.c **** UART_HandleTypeDef huart1;
  28:Core/Src/usart.c **** UART_HandleTypeDef huart3;
  29:Core/Src/usart.c **** DMA_HandleTypeDef hdma_usart3_rx;
  30:Core/Src/usart.c **** DMA_HandleTypeDef hdma_usart3_tx;
ARM GAS  C:\Users\cordi\AppData\Local\Temp\ccQk3OPa.s 			page 2


  31:Core/Src/usart.c **** 
  32:Core/Src/usart.c **** /* USART1 init function */
  33:Core/Src/usart.c **** 
  34:Core/Src/usart.c **** void MX_USART1_UART_Init(void)
  35:Core/Src/usart.c **** {
  29              		.loc 1 35 1 view -0
  30              		.cfi_startproc
  31              		@ args = 0, pretend = 0, frame = 0
  32              		@ frame_needed = 0, uses_anonymous_args = 0
  33 0000 08B5     		push	{r3, lr}
  34              		.cfi_def_cfa_offset 8
  35              		.cfi_offset 3, -8
  36              		.cfi_offset 14, -4
  36:Core/Src/usart.c **** 
  37:Core/Src/usart.c ****   /* USER CODE BEGIN USART1_Init 0 */
  38:Core/Src/usart.c **** 
  39:Core/Src/usart.c ****   /* USER CODE END USART1_Init 0 */
  40:Core/Src/usart.c **** 
  41:Core/Src/usart.c ****   /* USER CODE BEGIN USART1_Init 1 */
  42:Core/Src/usart.c **** 
  43:Core/Src/usart.c ****   /* USER CODE END USART1_Init 1 */
  44:Core/Src/usart.c ****   huart1.Instance = USART1;
  37              		.loc 1 44 3 view .LVU1
  38              		.loc 1 44 19 is_stmt 0 view .LVU2
  39 0002 0B48     		ldr	r0, .L5
  40 0004 0B4B     		ldr	r3, .L5+4
  41 0006 0360     		str	r3, [r0]
  45:Core/Src/usart.c ****   huart1.Init.BaudRate = 115200;
  42              		.loc 1 45 3 is_stmt 1 view .LVU3
  43              		.loc 1 45 24 is_stmt 0 view .LVU4
  44 0008 4FF4E133 		mov	r3, #115200
  45 000c 4360     		str	r3, [r0, #4]
  46:Core/Src/usart.c ****   huart1.Init.WordLength = UART_WORDLENGTH_8B;
  46              		.loc 1 46 3 is_stmt 1 view .LVU5
  47              		.loc 1 46 26 is_stmt 0 view .LVU6
  48 000e 0023     		movs	r3, #0
  49 0010 8360     		str	r3, [r0, #8]
  47:Core/Src/usart.c ****   huart1.Init.StopBits = UART_STOPBITS_1;
  50              		.loc 1 47 3 is_stmt 1 view .LVU7
  51              		.loc 1 47 24 is_stmt 0 view .LVU8
  52 0012 C360     		str	r3, [r0, #12]
  48:Core/Src/usart.c ****   huart1.Init.Parity = UART_PARITY_NONE;
  53              		.loc 1 48 3 is_stmt 1 view .LVU9
  54              		.loc 1 48 22 is_stmt 0 view .LVU10
  55 0014 0361     		str	r3, [r0, #16]
  49:Core/Src/usart.c ****   huart1.Init.Mode = UART_MODE_TX_RX;
  56              		.loc 1 49 3 is_stmt 1 view .LVU11
  57              		.loc 1 49 20 is_stmt 0 view .LVU12
  58 0016 0C22     		movs	r2, #12
  59 0018 4261     		str	r2, [r0, #20]
  50:Core/Src/usart.c ****   huart1.Init.HwFlowCtl = UART_HWCONTROL_NONE;
  60              		.loc 1 50 3 is_stmt 1 view .LVU13
  61              		.loc 1 50 25 is_stmt 0 view .LVU14
  62 001a 8361     		str	r3, [r0, #24]
  51:Core/Src/usart.c ****   huart1.Init.OverSampling = UART_OVERSAMPLING_16;
  63              		.loc 1 51 3 is_stmt 1 view .LVU15
  64              		.loc 1 51 28 is_stmt 0 view .LVU16
ARM GAS  C:\Users\cordi\AppData\Local\Temp\ccQk3OPa.s 			page 3


  65 001c C361     		str	r3, [r0, #28]
  52:Core/Src/usart.c ****   huart1.Init.OneBitSampling = UART_ONE_BIT_SAMPLE_DISABLE;
  66              		.loc 1 52 3 is_stmt 1 view .LVU17
  67              		.loc 1 52 30 is_stmt 0 view .LVU18
  68 001e 0362     		str	r3, [r0, #32]
  53:Core/Src/usart.c ****   huart1.AdvancedInit.AdvFeatureInit = UART_ADVFEATURE_NO_INIT;
  69              		.loc 1 53 3 is_stmt 1 view .LVU19
  70              		.loc 1 53 38 is_stmt 0 view .LVU20
  71 0020 4362     		str	r3, [r0, #36]
  54:Core/Src/usart.c ****   if (HAL_UART_Init(&huart1) != HAL_OK)
  72              		.loc 1 54 3 is_stmt 1 view .LVU21
  73              		.loc 1 54 7 is_stmt 0 view .LVU22
  74 0022 FFF7FEFF 		bl	HAL_UART_Init
  75              	.LVL0:
  76              		.loc 1 54 6 view .LVU23
  77 0026 00B9     		cbnz	r0, .L4
  78              	.L1:
  55:Core/Src/usart.c ****   {
  56:Core/Src/usart.c ****     Error_Handler();
  57:Core/Src/usart.c ****   }
  58:Core/Src/usart.c ****   /* USER CODE BEGIN USART1_Init 2 */
  59:Core/Src/usart.c **** 
  60:Core/Src/usart.c ****   /* USER CODE END USART1_Init 2 */
  61:Core/Src/usart.c **** 
  62:Core/Src/usart.c **** }
  79              		.loc 1 62 1 view .LVU24
  80 0028 08BD     		pop	{r3, pc}
  81              	.L4:
  56:Core/Src/usart.c ****   }
  82              		.loc 1 56 5 is_stmt 1 view .LVU25
  83 002a FFF7FEFF 		bl	Error_Handler
  84              	.LVL1:
  85              		.loc 1 62 1 is_stmt 0 view .LVU26
  86 002e FBE7     		b	.L1
  87              	.L6:
  88              		.align	2
  89              	.L5:
  90 0030 00000000 		.word	huart1
  91 0034 00380140 		.word	1073821696
  92              		.cfi_endproc
  93              	.LFE123:
  95              		.section	.text.MX_USART3_UART_Init,"ax",%progbits
  96              		.align	1
  97              		.global	MX_USART3_UART_Init
  98              		.syntax unified
  99              		.thumb
 100              		.thumb_func
 102              	MX_USART3_UART_Init:
 103              	.LFB124:
  63:Core/Src/usart.c **** /* USART3 init function */
  64:Core/Src/usart.c **** 
  65:Core/Src/usart.c **** void MX_USART3_UART_Init(void)
  66:Core/Src/usart.c **** {
 104              		.loc 1 66 1 is_stmt 1 view -0
 105              		.cfi_startproc
 106              		@ args = 0, pretend = 0, frame = 0
 107              		@ frame_needed = 0, uses_anonymous_args = 0
ARM GAS  C:\Users\cordi\AppData\Local\Temp\ccQk3OPa.s 			page 4


 108 0000 08B5     		push	{r3, lr}
 109              		.cfi_def_cfa_offset 8
 110              		.cfi_offset 3, -8
 111              		.cfi_offset 14, -4
  67:Core/Src/usart.c **** 
  68:Core/Src/usart.c ****   /* USER CODE BEGIN USART3_Init 0 */
  69:Core/Src/usart.c **** 
  70:Core/Src/usart.c ****   /* USER CODE END USART3_Init 0 */
  71:Core/Src/usart.c **** 
  72:Core/Src/usart.c ****   /* USER CODE BEGIN USART3_Init 1 */
  73:Core/Src/usart.c **** 
  74:Core/Src/usart.c ****   /* USER CODE END USART3_Init 1 */
  75:Core/Src/usart.c ****   huart3.Instance = USART3;
 112              		.loc 1 75 3 view .LVU28
 113              		.loc 1 75 19 is_stmt 0 view .LVU29
 114 0002 0B48     		ldr	r0, .L11
 115 0004 0B4B     		ldr	r3, .L11+4
 116 0006 0360     		str	r3, [r0]
  76:Core/Src/usart.c ****   huart3.Init.BaudRate = 115200;
 117              		.loc 1 76 3 is_stmt 1 view .LVU30
 118              		.loc 1 76 24 is_stmt 0 view .LVU31
 119 0008 4FF4E133 		mov	r3, #115200
 120 000c 4360     		str	r3, [r0, #4]
  77:Core/Src/usart.c ****   huart3.Init.WordLength = UART_WORDLENGTH_8B;
 121              		.loc 1 77 3 is_stmt 1 view .LVU32
 122              		.loc 1 77 26 is_stmt 0 view .LVU33
 123 000e 0023     		movs	r3, #0
 124 0010 8360     		str	r3, [r0, #8]
  78:Core/Src/usart.c ****   huart3.Init.StopBits = UART_STOPBITS_1;
 125              		.loc 1 78 3 is_stmt 1 view .LVU34
 126              		.loc 1 78 24 is_stmt 0 view .LVU35
 127 0012 C360     		str	r3, [r0, #12]
  79:Core/Src/usart.c ****   huart3.Init.Parity = UART_PARITY_NONE;
 128              		.loc 1 79 3 is_stmt 1 view .LVU36
 129              		.loc 1 79 22 is_stmt 0 view .LVU37
 130 0014 0361     		str	r3, [r0, #16]
  80:Core/Src/usart.c ****   huart3.Init.Mode = UART_MODE_TX_RX;
 131              		.loc 1 80 3 is_stmt 1 view .LVU38
 132              		.loc 1 80 20 is_stmt 0 view .LVU39
 133 0016 0C22     		movs	r2, #12
 134 0018 4261     		str	r2, [r0, #20]
  81:Core/Src/usart.c ****   huart3.Init.HwFlowCtl = UART_HWCONTROL_NONE;
 135              		.loc 1 81 3 is_stmt 1 view .LVU40
 136              		.loc 1 81 25 is_stmt 0 view .LVU41
 137 001a 8361     		str	r3, [r0, #24]
  82:Core/Src/usart.c ****   huart3.Init.OverSampling = UART_OVERSAMPLING_16;
 138              		.loc 1 82 3 is_stmt 1 view .LVU42
 139              		.loc 1 82 28 is_stmt 0 view .LVU43
 140 001c C361     		str	r3, [r0, #28]
  83:Core/Src/usart.c ****   huart3.Init.OneBitSampling = UART_ONE_BIT_SAMPLE_DISABLE;
 141              		.loc 1 83 3 is_stmt 1 view .LVU44
 142              		.loc 1 83 30 is_stmt 0 view .LVU45
 143 001e 0362     		str	r3, [r0, #32]
  84:Core/Src/usart.c ****   huart3.AdvancedInit.AdvFeatureInit = UART_ADVFEATURE_NO_INIT;
 144              		.loc 1 84 3 is_stmt 1 view .LVU46
 145              		.loc 1 84 38 is_stmt 0 view .LVU47
 146 0020 4362     		str	r3, [r0, #36]
ARM GAS  C:\Users\cordi\AppData\Local\Temp\ccQk3OPa.s 			page 5


  85:Core/Src/usart.c ****   if (HAL_UART_Init(&huart3) != HAL_OK)
 147              		.loc 1 85 3 is_stmt 1 view .LVU48
 148              		.loc 1 85 7 is_stmt 0 view .LVU49
 149 0022 FFF7FEFF 		bl	HAL_UART_Init
 150              	.LVL2:
 151              		.loc 1 85 6 view .LVU50
 152 0026 00B9     		cbnz	r0, .L10
 153              	.L7:
  86:Core/Src/usart.c ****   {
  87:Core/Src/usart.c ****     Error_Handler();
  88:Core/Src/usart.c ****   }
  89:Core/Src/usart.c ****   /* USER CODE BEGIN USART3_Init 2 */
  90:Core/Src/usart.c **** 
  91:Core/Src/usart.c ****   /* USER CODE END USART3_Init 2 */
  92:Core/Src/usart.c **** 
  93:Core/Src/usart.c **** }
 154              		.loc 1 93 1 view .LVU51
 155 0028 08BD     		pop	{r3, pc}
 156              	.L10:
  87:Core/Src/usart.c ****   }
 157              		.loc 1 87 5 is_stmt 1 view .LVU52
 158 002a FFF7FEFF 		bl	Error_Handler
 159              	.LVL3:
 160              		.loc 1 93 1 is_stmt 0 view .LVU53
 161 002e FBE7     		b	.L7
 162              	.L12:
 163              		.align	2
 164              	.L11:
 165 0030 00000000 		.word	huart3
 166 0034 00480040 		.word	1073760256
 167              		.cfi_endproc
 168              	.LFE124:
 170              		.section	.text.HAL_UART_MspInit,"ax",%progbits
 171              		.align	1
 172              		.global	HAL_UART_MspInit
 173              		.syntax unified
 174              		.thumb
 175              		.thumb_func
 177              	HAL_UART_MspInit:
 178              	.LVL4:
 179              	.LFB125:
  94:Core/Src/usart.c **** 
  95:Core/Src/usart.c **** void HAL_UART_MspInit(UART_HandleTypeDef* uartHandle)
  96:Core/Src/usart.c **** {
 180              		.loc 1 96 1 is_stmt 1 view -0
 181              		.cfi_startproc
 182              		@ args = 0, pretend = 0, frame = 40
 183              		@ frame_needed = 0, uses_anonymous_args = 0
 184              		.loc 1 96 1 is_stmt 0 view .LVU55
 185 0000 10B5     		push	{r4, lr}
 186              		.cfi_def_cfa_offset 8
 187              		.cfi_offset 4, -8
 188              		.cfi_offset 14, -4
 189 0002 8AB0     		sub	sp, sp, #40
 190              		.cfi_def_cfa_offset 48
  97:Core/Src/usart.c **** 
  98:Core/Src/usart.c ****   GPIO_InitTypeDef GPIO_InitStruct = {0};
ARM GAS  C:\Users\cordi\AppData\Local\Temp\ccQk3OPa.s 			page 6


 191              		.loc 1 98 3 is_stmt 1 view .LVU56
 192              		.loc 1 98 20 is_stmt 0 view .LVU57
 193 0004 0023     		movs	r3, #0
 194 0006 0593     		str	r3, [sp, #20]
 195 0008 0693     		str	r3, [sp, #24]
 196 000a 0793     		str	r3, [sp, #28]
 197 000c 0893     		str	r3, [sp, #32]
 198 000e 0993     		str	r3, [sp, #36]
  99:Core/Src/usart.c ****   if(uartHandle->Instance==USART1)
 199              		.loc 1 99 3 is_stmt 1 view .LVU58
 200              		.loc 1 99 16 is_stmt 0 view .LVU59
 201 0010 0368     		ldr	r3, [r0]
 202              		.loc 1 99 5 view .LVU60
 203 0012 3F4A     		ldr	r2, .L23
 204 0014 9342     		cmp	r3, r2
 205 0016 05D0     		beq	.L19
 206 0018 0446     		mov	r4, r0
 100:Core/Src/usart.c ****   {
 101:Core/Src/usart.c ****   /* USER CODE BEGIN USART1_MspInit 0 */
 102:Core/Src/usart.c **** 
 103:Core/Src/usart.c ****   /* USER CODE END USART1_MspInit 0 */
 104:Core/Src/usart.c ****     /* USART1 clock enable */
 105:Core/Src/usart.c ****     __HAL_RCC_USART1_CLK_ENABLE();
 106:Core/Src/usart.c **** 
 107:Core/Src/usart.c ****     __HAL_RCC_GPIOA_CLK_ENABLE();
 108:Core/Src/usart.c ****     /**USART1 GPIO Configuration
 109:Core/Src/usart.c ****     PA9     ------> USART1_TX
 110:Core/Src/usart.c ****     PA10     ------> USART1_RX
 111:Core/Src/usart.c ****     */
 112:Core/Src/usart.c ****     GPIO_InitStruct.Pin = GPIO_PIN_9|GPIO_PIN_10;
 113:Core/Src/usart.c ****     GPIO_InitStruct.Mode = GPIO_MODE_AF_PP;
 114:Core/Src/usart.c ****     GPIO_InitStruct.Pull = GPIO_NOPULL;
 115:Core/Src/usart.c ****     GPIO_InitStruct.Speed = GPIO_SPEED_FREQ_HIGH;
 116:Core/Src/usart.c ****     GPIO_InitStruct.Alternate = GPIO_AF7_USART1;
 117:Core/Src/usart.c ****     HAL_GPIO_Init(GPIOA, &GPIO_InitStruct);
 118:Core/Src/usart.c **** 
 119:Core/Src/usart.c ****   /* USER CODE BEGIN USART1_MspInit 1 */
 120:Core/Src/usart.c **** 
 121:Core/Src/usart.c ****   /* USER CODE END USART1_MspInit 1 */
 122:Core/Src/usart.c ****   }
 123:Core/Src/usart.c ****   else if(uartHandle->Instance==USART3)
 207              		.loc 1 123 8 is_stmt 1 view .LVU61
 208              		.loc 1 123 10 is_stmt 0 view .LVU62
 209 001a 3E4A     		ldr	r2, .L23+4
 210 001c 9342     		cmp	r3, r2
 211 001e 23D0     		beq	.L20
 212              	.LVL5:
 213              	.L13:
 124:Core/Src/usart.c ****   {
 125:Core/Src/usart.c ****   /* USER CODE BEGIN USART3_MspInit 0 */
 126:Core/Src/usart.c **** 
 127:Core/Src/usart.c ****   /* USER CODE END USART3_MspInit 0 */
 128:Core/Src/usart.c ****     /* USART3 clock enable */
 129:Core/Src/usart.c ****     __HAL_RCC_USART3_CLK_ENABLE();
 130:Core/Src/usart.c **** 
 131:Core/Src/usart.c ****     __HAL_RCC_GPIOB_CLK_ENABLE();
 132:Core/Src/usart.c ****     /**USART3 GPIO Configuration
ARM GAS  C:\Users\cordi\AppData\Local\Temp\ccQk3OPa.s 			page 7


 133:Core/Src/usart.c ****     PB10     ------> USART3_TX
 134:Core/Src/usart.c ****     PB11     ------> USART3_RX
 135:Core/Src/usart.c ****     */
 136:Core/Src/usart.c ****     GPIO_InitStruct.Pin = GPIO_PIN_10|GPIO_PIN_11;
 137:Core/Src/usart.c ****     GPIO_InitStruct.Mode = GPIO_MODE_AF_PP;
 138:Core/Src/usart.c ****     GPIO_InitStruct.Pull = GPIO_NOPULL;
 139:Core/Src/usart.c ****     GPIO_InitStruct.Speed = GPIO_SPEED_FREQ_HIGH;
 140:Core/Src/usart.c ****     GPIO_InitStruct.Alternate = GPIO_AF7_USART3;
 141:Core/Src/usart.c ****     HAL_GPIO_Init(GPIOB, &GPIO_InitStruct);
 142:Core/Src/usart.c **** 
 143:Core/Src/usart.c ****     /* USART3 DMA Init */
 144:Core/Src/usart.c ****     /* USART3_RX Init */
 145:Core/Src/usart.c ****     hdma_usart3_rx.Instance = DMA1_Channel3;
 146:Core/Src/usart.c ****     hdma_usart3_rx.Init.Direction = DMA_PERIPH_TO_MEMORY;
 147:Core/Src/usart.c ****     hdma_usart3_rx.Init.PeriphInc = DMA_PINC_DISABLE;
 148:Core/Src/usart.c ****     hdma_usart3_rx.Init.MemInc = DMA_MINC_ENABLE;
 149:Core/Src/usart.c ****     hdma_usart3_rx.Init.PeriphDataAlignment = DMA_PDATAALIGN_BYTE;
 150:Core/Src/usart.c ****     hdma_usart3_rx.Init.MemDataAlignment = DMA_MDATAALIGN_BYTE;
 151:Core/Src/usart.c ****     hdma_usart3_rx.Init.Mode = DMA_NORMAL;
 152:Core/Src/usart.c ****     hdma_usart3_rx.Init.Priority = DMA_PRIORITY_LOW;
 153:Core/Src/usart.c ****     if (HAL_DMA_Init(&hdma_usart3_rx) != HAL_OK)
 154:Core/Src/usart.c ****     {
 155:Core/Src/usart.c ****       Error_Handler();
 156:Core/Src/usart.c ****     }
 157:Core/Src/usart.c **** 
 158:Core/Src/usart.c ****     __HAL_LINKDMA(uartHandle,hdmarx,hdma_usart3_rx);
 159:Core/Src/usart.c **** 
 160:Core/Src/usart.c ****     /* USART3_TX Init */
 161:Core/Src/usart.c ****     hdma_usart3_tx.Instance = DMA1_Channel2;
 162:Core/Src/usart.c ****     hdma_usart3_tx.Init.Direction = DMA_MEMORY_TO_PERIPH;
 163:Core/Src/usart.c ****     hdma_usart3_tx.Init.PeriphInc = DMA_PINC_DISABLE;
 164:Core/Src/usart.c ****     hdma_usart3_tx.Init.MemInc = DMA_MINC_ENABLE;
 165:Core/Src/usart.c ****     hdma_usart3_tx.Init.PeriphDataAlignment = DMA_PDATAALIGN_BYTE;
 166:Core/Src/usart.c ****     hdma_usart3_tx.Init.MemDataAlignment = DMA_MDATAALIGN_BYTE;
 167:Core/Src/usart.c ****     hdma_usart3_tx.Init.Mode = DMA_NORMAL;
 168:Core/Src/usart.c ****     hdma_usart3_tx.Init.Priority = DMA_PRIORITY_LOW;
 169:Core/Src/usart.c ****     if (HAL_DMA_Init(&hdma_usart3_tx) != HAL_OK)
 170:Core/Src/usart.c ****     {
 171:Core/Src/usart.c ****       Error_Handler();
 172:Core/Src/usart.c ****     }
 173:Core/Src/usart.c **** 
 174:Core/Src/usart.c ****     __HAL_LINKDMA(uartHandle,hdmatx,hdma_usart3_tx);
 175:Core/Src/usart.c **** 
 176:Core/Src/usart.c ****     /* USART3 interrupt Init */
 177:Core/Src/usart.c ****     HAL_NVIC_SetPriority(USART3_IRQn, 0, 0);
 178:Core/Src/usart.c ****     HAL_NVIC_EnableIRQ(USART3_IRQn);
 179:Core/Src/usart.c ****   /* USER CODE BEGIN USART3_MspInit 1 */
 180:Core/Src/usart.c **** 
 181:Core/Src/usart.c ****   /* USER CODE END USART3_MspInit 1 */
 182:Core/Src/usart.c ****   }
 183:Core/Src/usart.c **** }
 214              		.loc 1 183 1 view .LVU63
 215 0020 0AB0     		add	sp, sp, #40
 216              		.cfi_remember_state
 217              		.cfi_def_cfa_offset 8
 218              		@ sp needed
 219 0022 10BD     		pop	{r4, pc}
ARM GAS  C:\Users\cordi\AppData\Local\Temp\ccQk3OPa.s 			page 8


 220              	.LVL6:
 221              	.L19:
 222              		.cfi_restore_state
 105:Core/Src/usart.c **** 
 223              		.loc 1 105 5 is_stmt 1 view .LVU64
 224              	.LBB2:
 105:Core/Src/usart.c **** 
 225              		.loc 1 105 5 view .LVU65
 105:Core/Src/usart.c **** 
 226              		.loc 1 105 5 view .LVU66
 227 0024 3C4B     		ldr	r3, .L23+8
 228 0026 9A69     		ldr	r2, [r3, #24]
 229 0028 42F48042 		orr	r2, r2, #16384
 230 002c 9A61     		str	r2, [r3, #24]
 105:Core/Src/usart.c **** 
 231              		.loc 1 105 5 view .LVU67
 232 002e 9A69     		ldr	r2, [r3, #24]
 233 0030 02F48042 		and	r2, r2, #16384
 234 0034 0192     		str	r2, [sp, #4]
 105:Core/Src/usart.c **** 
 235              		.loc 1 105 5 view .LVU68
 236 0036 019A     		ldr	r2, [sp, #4]
 237              	.LBE2:
 105:Core/Src/usart.c **** 
 238              		.loc 1 105 5 view .LVU69
 107:Core/Src/usart.c ****     /**USART1 GPIO Configuration
 239              		.loc 1 107 5 view .LVU70
 240              	.LBB3:
 107:Core/Src/usart.c ****     /**USART1 GPIO Configuration
 241              		.loc 1 107 5 view .LVU71
 107:Core/Src/usart.c ****     /**USART1 GPIO Configuration
 242              		.loc 1 107 5 view .LVU72
 243 0038 5A69     		ldr	r2, [r3, #20]
 244 003a 42F40032 		orr	r2, r2, #131072
 245 003e 5A61     		str	r2, [r3, #20]
 107:Core/Src/usart.c ****     /**USART1 GPIO Configuration
 246              		.loc 1 107 5 view .LVU73
 247 0040 5B69     		ldr	r3, [r3, #20]
 248 0042 03F40033 		and	r3, r3, #131072
 249 0046 0293     		str	r3, [sp, #8]
 107:Core/Src/usart.c ****     /**USART1 GPIO Configuration
 250              		.loc 1 107 5 view .LVU74
 251 0048 029B     		ldr	r3, [sp, #8]
 252              	.LBE3:
 107:Core/Src/usart.c ****     /**USART1 GPIO Configuration
 253              		.loc 1 107 5 view .LVU75
 112:Core/Src/usart.c ****     GPIO_InitStruct.Mode = GPIO_MODE_AF_PP;
 254              		.loc 1 112 5 view .LVU76
 112:Core/Src/usart.c ****     GPIO_InitStruct.Mode = GPIO_MODE_AF_PP;
 255              		.loc 1 112 25 is_stmt 0 view .LVU77
 256 004a 4FF4C063 		mov	r3, #1536
 257 004e 0593     		str	r3, [sp, #20]
 113:Core/Src/usart.c ****     GPIO_InitStruct.Pull = GPIO_NOPULL;
 258              		.loc 1 113 5 is_stmt 1 view .LVU78
 113:Core/Src/usart.c ****     GPIO_InitStruct.Pull = GPIO_NOPULL;
 259              		.loc 1 113 26 is_stmt 0 view .LVU79
 260 0050 0223     		movs	r3, #2
ARM GAS  C:\Users\cordi\AppData\Local\Temp\ccQk3OPa.s 			page 9


 261 0052 0693     		str	r3, [sp, #24]
 114:Core/Src/usart.c ****     GPIO_InitStruct.Speed = GPIO_SPEED_FREQ_HIGH;
 262              		.loc 1 114 5 is_stmt 1 view .LVU80
 115:Core/Src/usart.c ****     GPIO_InitStruct.Alternate = GPIO_AF7_USART1;
 263              		.loc 1 115 5 view .LVU81
 115:Core/Src/usart.c ****     GPIO_InitStruct.Alternate = GPIO_AF7_USART1;
 264              		.loc 1 115 27 is_stmt 0 view .LVU82
 265 0054 0323     		movs	r3, #3
 266 0056 0893     		str	r3, [sp, #32]
 116:Core/Src/usart.c ****     HAL_GPIO_Init(GPIOA, &GPIO_InitStruct);
 267              		.loc 1 116 5 is_stmt 1 view .LVU83
 116:Core/Src/usart.c ****     HAL_GPIO_Init(GPIOA, &GPIO_InitStruct);
 268              		.loc 1 116 31 is_stmt 0 view .LVU84
 269 0058 0723     		movs	r3, #7
 270 005a 0993     		str	r3, [sp, #36]
 117:Core/Src/usart.c **** 
 271              		.loc 1 117 5 is_stmt 1 view .LVU85
 272 005c 05A9     		add	r1, sp, #20
 273 005e 4FF09040 		mov	r0, #1207959552
 274              	.LVL7:
 117:Core/Src/usart.c **** 
 275              		.loc 1 117 5 is_stmt 0 view .LVU86
 276 0062 FFF7FEFF 		bl	HAL_GPIO_Init
 277              	.LVL8:
 278 0066 DBE7     		b	.L13
 279              	.LVL9:
 280              	.L20:
 129:Core/Src/usart.c **** 
 281              		.loc 1 129 5 is_stmt 1 view .LVU87
 282              	.LBB4:
 129:Core/Src/usart.c **** 
 283              		.loc 1 129 5 view .LVU88
 129:Core/Src/usart.c **** 
 284              		.loc 1 129 5 view .LVU89
 285 0068 2B4B     		ldr	r3, .L23+8
 286 006a DA69     		ldr	r2, [r3, #28]
 287 006c 42F48022 		orr	r2, r2, #262144
 288 0070 DA61     		str	r2, [r3, #28]
 129:Core/Src/usart.c **** 
 289              		.loc 1 129 5 view .LVU90
 290 0072 DA69     		ldr	r2, [r3, #28]
 291 0074 02F48022 		and	r2, r2, #262144
 292 0078 0392     		str	r2, [sp, #12]
 129:Core/Src/usart.c **** 
 293              		.loc 1 129 5 view .LVU91
 294 007a 039A     		ldr	r2, [sp, #12]
 295              	.LBE4:
 129:Core/Src/usart.c **** 
 296              		.loc 1 129 5 view .LVU92
 131:Core/Src/usart.c ****     /**USART3 GPIO Configuration
 297              		.loc 1 131 5 view .LVU93
 298              	.LBB5:
 131:Core/Src/usart.c ****     /**USART3 GPIO Configuration
 299              		.loc 1 131 5 view .LVU94
 131:Core/Src/usart.c ****     /**USART3 GPIO Configuration
 300              		.loc 1 131 5 view .LVU95
 301 007c 5A69     		ldr	r2, [r3, #20]
ARM GAS  C:\Users\cordi\AppData\Local\Temp\ccQk3OPa.s 			page 10


 302 007e 42F48022 		orr	r2, r2, #262144
 303 0082 5A61     		str	r2, [r3, #20]
 131:Core/Src/usart.c ****     /**USART3 GPIO Configuration
 304              		.loc 1 131 5 view .LVU96
 305 0084 5B69     		ldr	r3, [r3, #20]
 306 0086 03F48023 		and	r3, r3, #262144
 307 008a 0493     		str	r3, [sp, #16]
 131:Core/Src/usart.c ****     /**USART3 GPIO Configuration
 308              		.loc 1 131 5 view .LVU97
 309 008c 049B     		ldr	r3, [sp, #16]
 310              	.LBE5:
 131:Core/Src/usart.c ****     /**USART3 GPIO Configuration
 311              		.loc 1 131 5 view .LVU98
 136:Core/Src/usart.c ****     GPIO_InitStruct.Mode = GPIO_MODE_AF_PP;
 312              		.loc 1 136 5 view .LVU99
 136:Core/Src/usart.c ****     GPIO_InitStruct.Mode = GPIO_MODE_AF_PP;
 313              		.loc 1 136 25 is_stmt 0 view .LVU100
 314 008e 4FF44063 		mov	r3, #3072
 315 0092 0593     		str	r3, [sp, #20]
 137:Core/Src/usart.c ****     GPIO_InitStruct.Pull = GPIO_NOPULL;
 316              		.loc 1 137 5 is_stmt 1 view .LVU101
 137:Core/Src/usart.c ****     GPIO_InitStruct.Pull = GPIO_NOPULL;
 317              		.loc 1 137 26 is_stmt 0 view .LVU102
 318 0094 0223     		movs	r3, #2
 319 0096 0693     		str	r3, [sp, #24]
 138:Core/Src/usart.c ****     GPIO_InitStruct.Speed = GPIO_SPEED_FREQ_HIGH;
 320              		.loc 1 138 5 is_stmt 1 view .LVU103
 139:Core/Src/usart.c ****     GPIO_InitStruct.Alternate = GPIO_AF7_USART3;
 321              		.loc 1 139 5 view .LVU104
 139:Core/Src/usart.c ****     GPIO_InitStruct.Alternate = GPIO_AF7_USART3;
 322              		.loc 1 139 27 is_stmt 0 view .LVU105
 323 0098 0323     		movs	r3, #3
 324 009a 0893     		str	r3, [sp, #32]
 140:Core/Src/usart.c ****     HAL_GPIO_Init(GPIOB, &GPIO_InitStruct);
 325              		.loc 1 140 5 is_stmt 1 view .LVU106
 140:Core/Src/usart.c ****     HAL_GPIO_Init(GPIOB, &GPIO_InitStruct);
 326              		.loc 1 140 31 is_stmt 0 view .LVU107
 327 009c 0723     		movs	r3, #7
 328 009e 0993     		str	r3, [sp, #36]
 141:Core/Src/usart.c **** 
 329              		.loc 1 141 5 is_stmt 1 view .LVU108
 330 00a0 05A9     		add	r1, sp, #20
 331 00a2 1E48     		ldr	r0, .L23+12
 332              	.LVL10:
 141:Core/Src/usart.c **** 
 333              		.loc 1 141 5 is_stmt 0 view .LVU109
 334 00a4 FFF7FEFF 		bl	HAL_GPIO_Init
 335              	.LVL11:
 145:Core/Src/usart.c ****     hdma_usart3_rx.Init.Direction = DMA_PERIPH_TO_MEMORY;
 336              		.loc 1 145 5 is_stmt 1 view .LVU110
 145:Core/Src/usart.c ****     hdma_usart3_rx.Init.Direction = DMA_PERIPH_TO_MEMORY;
 337              		.loc 1 145 29 is_stmt 0 view .LVU111
 338 00a8 1D48     		ldr	r0, .L23+16
 339 00aa 1E4B     		ldr	r3, .L23+20
 340 00ac 0360     		str	r3, [r0]
 146:Core/Src/usart.c ****     hdma_usart3_rx.Init.PeriphInc = DMA_PINC_DISABLE;
 341              		.loc 1 146 5 is_stmt 1 view .LVU112
ARM GAS  C:\Users\cordi\AppData\Local\Temp\ccQk3OPa.s 			page 11


 146:Core/Src/usart.c ****     hdma_usart3_rx.Init.PeriphInc = DMA_PINC_DISABLE;
 342              		.loc 1 146 35 is_stmt 0 view .LVU113
 343 00ae 0023     		movs	r3, #0
 344 00b0 4360     		str	r3, [r0, #4]
 147:Core/Src/usart.c ****     hdma_usart3_rx.Init.MemInc = DMA_MINC_ENABLE;
 345              		.loc 1 147 5 is_stmt 1 view .LVU114
 147:Core/Src/usart.c ****     hdma_usart3_rx.Init.MemInc = DMA_MINC_ENABLE;
 346              		.loc 1 147 35 is_stmt 0 view .LVU115
 347 00b2 8360     		str	r3, [r0, #8]
 148:Core/Src/usart.c ****     hdma_usart3_rx.Init.PeriphDataAlignment = DMA_PDATAALIGN_BYTE;
 348              		.loc 1 148 5 is_stmt 1 view .LVU116
 148:Core/Src/usart.c ****     hdma_usart3_rx.Init.PeriphDataAlignment = DMA_PDATAALIGN_BYTE;
 349              		.loc 1 148 32 is_stmt 0 view .LVU117
 350 00b4 8022     		movs	r2, #128
 351 00b6 C260     		str	r2, [r0, #12]
 149:Core/Src/usart.c ****     hdma_usart3_rx.Init.MemDataAlignment = DMA_MDATAALIGN_BYTE;
 352              		.loc 1 149 5 is_stmt 1 view .LVU118
 149:Core/Src/usart.c ****     hdma_usart3_rx.Init.MemDataAlignment = DMA_MDATAALIGN_BYTE;
 353              		.loc 1 149 45 is_stmt 0 view .LVU119
 354 00b8 0361     		str	r3, [r0, #16]
 150:Core/Src/usart.c ****     hdma_usart3_rx.Init.Mode = DMA_NORMAL;
 355              		.loc 1 150 5 is_stmt 1 view .LVU120
 150:Core/Src/usart.c ****     hdma_usart3_rx.Init.Mode = DMA_NORMAL;
 356              		.loc 1 150 42 is_stmt 0 view .LVU121
 357 00ba 4361     		str	r3, [r0, #20]
 151:Core/Src/usart.c ****     hdma_usart3_rx.Init.Priority = DMA_PRIORITY_LOW;
 358              		.loc 1 151 5 is_stmt 1 view .LVU122
 151:Core/Src/usart.c ****     hdma_usart3_rx.Init.Priority = DMA_PRIORITY_LOW;
 359              		.loc 1 151 30 is_stmt 0 view .LVU123
 360 00bc 8361     		str	r3, [r0, #24]
 152:Core/Src/usart.c ****     if (HAL_DMA_Init(&hdma_usart3_rx) != HAL_OK)
 361              		.loc 1 152 5 is_stmt 1 view .LVU124
 152:Core/Src/usart.c ****     if (HAL_DMA_Init(&hdma_usart3_rx) != HAL_OK)
 362              		.loc 1 152 34 is_stmt 0 view .LVU125
 363 00be C361     		str	r3, [r0, #28]
 153:Core/Src/usart.c ****     {
 364              		.loc 1 153 5 is_stmt 1 view .LVU126
 153:Core/Src/usart.c ****     {
 365              		.loc 1 153 9 is_stmt 0 view .LVU127
 366 00c0 FFF7FEFF 		bl	HAL_DMA_Init
 367              	.LVL12:
 153:Core/Src/usart.c ****     {
 368              		.loc 1 153 8 view .LVU128
 369 00c4 F0B9     		cbnz	r0, .L21
 370              	.L16:
 158:Core/Src/usart.c **** 
 371              		.loc 1 158 5 is_stmt 1 view .LVU129
 158:Core/Src/usart.c **** 
 372              		.loc 1 158 5 view .LVU130
 373 00c6 164B     		ldr	r3, .L23+16
 374 00c8 6367     		str	r3, [r4, #116]
 158:Core/Src/usart.c **** 
 375              		.loc 1 158 5 view .LVU131
 376 00ca 5C62     		str	r4, [r3, #36]
 158:Core/Src/usart.c **** 
 377              		.loc 1 158 5 view .LVU132
 161:Core/Src/usart.c ****     hdma_usart3_tx.Init.Direction = DMA_MEMORY_TO_PERIPH;
ARM GAS  C:\Users\cordi\AppData\Local\Temp\ccQk3OPa.s 			page 12


 378              		.loc 1 161 5 view .LVU133
 161:Core/Src/usart.c ****     hdma_usart3_tx.Init.Direction = DMA_MEMORY_TO_PERIPH;
 379              		.loc 1 161 29 is_stmt 0 view .LVU134
 380 00cc 1648     		ldr	r0, .L23+24
 381 00ce 174B     		ldr	r3, .L23+28
 382 00d0 0360     		str	r3, [r0]
 162:Core/Src/usart.c ****     hdma_usart3_tx.Init.PeriphInc = DMA_PINC_DISABLE;
 383              		.loc 1 162 5 is_stmt 1 view .LVU135
 162:Core/Src/usart.c ****     hdma_usart3_tx.Init.PeriphInc = DMA_PINC_DISABLE;
 384              		.loc 1 162 35 is_stmt 0 view .LVU136
 385 00d2 1023     		movs	r3, #16
 386 00d4 4360     		str	r3, [r0, #4]
 163:Core/Src/usart.c ****     hdma_usart3_tx.Init.MemInc = DMA_MINC_ENABLE;
 387              		.loc 1 163 5 is_stmt 1 view .LVU137
 163:Core/Src/usart.c ****     hdma_usart3_tx.Init.MemInc = DMA_MINC_ENABLE;
 388              		.loc 1 163 35 is_stmt 0 view .LVU138
 389 00d6 0023     		movs	r3, #0
 390 00d8 8360     		str	r3, [r0, #8]
 164:Core/Src/usart.c ****     hdma_usart3_tx.Init.PeriphDataAlignment = DMA_PDATAALIGN_BYTE;
 391              		.loc 1 164 5 is_stmt 1 view .LVU139
 164:Core/Src/usart.c ****     hdma_usart3_tx.Init.PeriphDataAlignment = DMA_PDATAALIGN_BYTE;
 392              		.loc 1 164 32 is_stmt 0 view .LVU140
 393 00da 8022     		movs	r2, #128
 394 00dc C260     		str	r2, [r0, #12]
 165:Core/Src/usart.c ****     hdma_usart3_tx.Init.MemDataAlignment = DMA_MDATAALIGN_BYTE;
 395              		.loc 1 165 5 is_stmt 1 view .LVU141
 165:Core/Src/usart.c ****     hdma_usart3_tx.Init.MemDataAlignment = DMA_MDATAALIGN_BYTE;
 396              		.loc 1 165 45 is_stmt 0 view .LVU142
 397 00de 0361     		str	r3, [r0, #16]
 166:Core/Src/usart.c ****     hdma_usart3_tx.Init.Mode = DMA_NORMAL;
 398              		.loc 1 166 5 is_stmt 1 view .LVU143
 166:Core/Src/usart.c ****     hdma_usart3_tx.Init.Mode = DMA_NORMAL;
 399              		.loc 1 166 42 is_stmt 0 view .LVU144
 400 00e0 4361     		str	r3, [r0, #20]
 167:Core/Src/usart.c ****     hdma_usart3_tx.Init.Priority = DMA_PRIORITY_LOW;
 401              		.loc 1 167 5 is_stmt 1 view .LVU145
 167:Core/Src/usart.c ****     hdma_usart3_tx.Init.Priority = DMA_PRIORITY_LOW;
 402              		.loc 1 167 30 is_stmt 0 view .LVU146
 403 00e2 8361     		str	r3, [r0, #24]
 168:Core/Src/usart.c ****     if (HAL_DMA_Init(&hdma_usart3_tx) != HAL_OK)
 404              		.loc 1 168 5 is_stmt 1 view .LVU147
 168:Core/Src/usart.c ****     if (HAL_DMA_Init(&hdma_usart3_tx) != HAL_OK)
 405              		.loc 1 168 34 is_stmt 0 view .LVU148
 406 00e4 C361     		str	r3, [r0, #28]
 169:Core/Src/usart.c ****     {
 407              		.loc 1 169 5 is_stmt 1 view .LVU149
 169:Core/Src/usart.c ****     {
 408              		.loc 1 169 9 is_stmt 0 view .LVU150
 409 00e6 FFF7FEFF 		bl	HAL_DMA_Init
 410              	.LVL13:
 169:Core/Src/usart.c ****     {
 411              		.loc 1 169 8 view .LVU151
 412 00ea 70B9     		cbnz	r0, .L22
 413              	.L17:
 174:Core/Src/usart.c **** 
 414              		.loc 1 174 5 is_stmt 1 view .LVU152
 174:Core/Src/usart.c **** 
ARM GAS  C:\Users\cordi\AppData\Local\Temp\ccQk3OPa.s 			page 13


 415              		.loc 1 174 5 view .LVU153
 416 00ec 0E4B     		ldr	r3, .L23+24
 417 00ee 2367     		str	r3, [r4, #112]
 174:Core/Src/usart.c **** 
 418              		.loc 1 174 5 view .LVU154
 419 00f0 5C62     		str	r4, [r3, #36]
 174:Core/Src/usart.c **** 
 420              		.loc 1 174 5 view .LVU155
 177:Core/Src/usart.c ****     HAL_NVIC_EnableIRQ(USART3_IRQn);
 421              		.loc 1 177 5 view .LVU156
 422 00f2 0022     		movs	r2, #0
 423 00f4 1146     		mov	r1, r2
 424 00f6 2720     		movs	r0, #39
 425 00f8 FFF7FEFF 		bl	HAL_NVIC_SetPriority
 426              	.LVL14:
 178:Core/Src/usart.c ****   /* USER CODE BEGIN USART3_MspInit 1 */
 427              		.loc 1 178 5 view .LVU157
 428 00fc 2720     		movs	r0, #39
 429 00fe FFF7FEFF 		bl	HAL_NVIC_EnableIRQ
 430              	.LVL15:
 431              		.loc 1 183 1 is_stmt 0 view .LVU158
 432 0102 8DE7     		b	.L13
 433              	.L21:
 155:Core/Src/usart.c ****     }
 434              		.loc 1 155 7 is_stmt 1 view .LVU159
 435 0104 FFF7FEFF 		bl	Error_Handler
 436              	.LVL16:
 437 0108 DDE7     		b	.L16
 438              	.L22:
 171:Core/Src/usart.c ****     }
 439              		.loc 1 171 7 view .LVU160
 440 010a FFF7FEFF 		bl	Error_Handler
 441              	.LVL17:
 442 010e EDE7     		b	.L17
 443              	.L24:
 444              		.align	2
 445              	.L23:
 446 0110 00380140 		.word	1073821696
 447 0114 00480040 		.word	1073760256
 448 0118 00100240 		.word	1073876992
 449 011c 00040048 		.word	1207960576
 450 0120 00000000 		.word	hdma_usart3_rx
 451 0124 30000240 		.word	1073872944
 452 0128 00000000 		.word	hdma_usart3_tx
 453 012c 1C000240 		.word	1073872924
 454              		.cfi_endproc
 455              	.LFE125:
 457              		.section	.text.HAL_UART_MspDeInit,"ax",%progbits
 458              		.align	1
 459              		.global	HAL_UART_MspDeInit
 460              		.syntax unified
 461              		.thumb
 462              		.thumb_func
 464              	HAL_UART_MspDeInit:
 465              	.LVL18:
 466              	.LFB126:
 184:Core/Src/usart.c **** 
ARM GAS  C:\Users\cordi\AppData\Local\Temp\ccQk3OPa.s 			page 14


 185:Core/Src/usart.c **** void HAL_UART_MspDeInit(UART_HandleTypeDef* uartHandle)
 186:Core/Src/usart.c **** {
 467              		.loc 1 186 1 view -0
 468              		.cfi_startproc
 469              		@ args = 0, pretend = 0, frame = 0
 470              		@ frame_needed = 0, uses_anonymous_args = 0
 471              		.loc 1 186 1 is_stmt 0 view .LVU162
 472 0000 10B5     		push	{r4, lr}
 473              		.cfi_def_cfa_offset 8
 474              		.cfi_offset 4, -8
 475              		.cfi_offset 14, -4
 187:Core/Src/usart.c **** 
 188:Core/Src/usart.c ****   if(uartHandle->Instance==USART1)
 476              		.loc 1 188 3 is_stmt 1 view .LVU163
 477              		.loc 1 188 16 is_stmt 0 view .LVU164
 478 0002 0368     		ldr	r3, [r0]
 479              		.loc 1 188 5 view .LVU165
 480 0004 144A     		ldr	r2, .L31
 481 0006 9342     		cmp	r3, r2
 482 0008 04D0     		beq	.L29
 483 000a 0446     		mov	r4, r0
 189:Core/Src/usart.c ****   {
 190:Core/Src/usart.c ****   /* USER CODE BEGIN USART1_MspDeInit 0 */
 191:Core/Src/usart.c **** 
 192:Core/Src/usart.c ****   /* USER CODE END USART1_MspDeInit 0 */
 193:Core/Src/usart.c ****     /* Peripheral clock disable */
 194:Core/Src/usart.c ****     __HAL_RCC_USART1_CLK_DISABLE();
 195:Core/Src/usart.c **** 
 196:Core/Src/usart.c ****     /**USART1 GPIO Configuration
 197:Core/Src/usart.c ****     PA9     ------> USART1_TX
 198:Core/Src/usart.c ****     PA10     ------> USART1_RX
 199:Core/Src/usart.c ****     */
 200:Core/Src/usart.c ****     HAL_GPIO_DeInit(GPIOA, GPIO_PIN_9|GPIO_PIN_10);
 201:Core/Src/usart.c **** 
 202:Core/Src/usart.c ****   /* USER CODE BEGIN USART1_MspDeInit 1 */
 203:Core/Src/usart.c **** 
 204:Core/Src/usart.c ****   /* USER CODE END USART1_MspDeInit 1 */
 205:Core/Src/usart.c ****   }
 206:Core/Src/usart.c ****   else if(uartHandle->Instance==USART3)
 484              		.loc 1 206 8 is_stmt 1 view .LVU166
 485              		.loc 1 206 10 is_stmt 0 view .LVU167
 486 000c 134A     		ldr	r2, .L31+4
 487 000e 9342     		cmp	r3, r2
 488 0010 0DD0     		beq	.L30
 489              	.LVL19:
 490              	.L25:
 207:Core/Src/usart.c ****   {
 208:Core/Src/usart.c ****   /* USER CODE BEGIN USART3_MspDeInit 0 */
 209:Core/Src/usart.c **** 
 210:Core/Src/usart.c ****   /* USER CODE END USART3_MspDeInit 0 */
 211:Core/Src/usart.c ****     /* Peripheral clock disable */
 212:Core/Src/usart.c ****     __HAL_RCC_USART3_CLK_DISABLE();
 213:Core/Src/usart.c **** 
 214:Core/Src/usart.c ****     /**USART3 GPIO Configuration
 215:Core/Src/usart.c ****     PB10     ------> USART3_TX
 216:Core/Src/usart.c ****     PB11     ------> USART3_RX
 217:Core/Src/usart.c ****     */
ARM GAS  C:\Users\cordi\AppData\Local\Temp\ccQk3OPa.s 			page 15


 218:Core/Src/usart.c ****     HAL_GPIO_DeInit(GPIOB, GPIO_PIN_10|GPIO_PIN_11);
 219:Core/Src/usart.c **** 
 220:Core/Src/usart.c ****     /* USART3 DMA DeInit */
 221:Core/Src/usart.c ****     HAL_DMA_DeInit(uartHandle->hdmarx);
 222:Core/Src/usart.c ****     HAL_DMA_DeInit(uartHandle->hdmatx);
 223:Core/Src/usart.c **** 
 224:Core/Src/usart.c ****     /* USART3 interrupt Deinit */
 225:Core/Src/usart.c ****     HAL_NVIC_DisableIRQ(USART3_IRQn);
 226:Core/Src/usart.c ****   /* USER CODE BEGIN USART3_MspDeInit 1 */
 227:Core/Src/usart.c **** 
 228:Core/Src/usart.c ****   /* USER CODE END USART3_MspDeInit 1 */
 229:Core/Src/usart.c ****   }
 230:Core/Src/usart.c **** }
 491              		.loc 1 230 1 view .LVU168
 492 0012 10BD     		pop	{r4, pc}
 493              	.LVL20:
 494              	.L29:
 194:Core/Src/usart.c **** 
 495              		.loc 1 194 5 is_stmt 1 view .LVU169
 496 0014 02F55842 		add	r2, r2, #55296
 497 0018 9369     		ldr	r3, [r2, #24]
 498 001a 23F48043 		bic	r3, r3, #16384
 499 001e 9361     		str	r3, [r2, #24]
 200:Core/Src/usart.c **** 
 500              		.loc 1 200 5 view .LVU170
 501 0020 4FF4C061 		mov	r1, #1536
 502 0024 4FF09040 		mov	r0, #1207959552
 503              	.LVL21:
 200:Core/Src/usart.c **** 
 504              		.loc 1 200 5 is_stmt 0 view .LVU171
 505 0028 FFF7FEFF 		bl	HAL_GPIO_DeInit
 506              	.LVL22:
 507 002c F1E7     		b	.L25
 508              	.LVL23:
 509              	.L30:
 212:Core/Src/usart.c **** 
 510              		.loc 1 212 5 is_stmt 1 view .LVU172
 511 002e 02F5E432 		add	r2, r2, #116736
 512 0032 D369     		ldr	r3, [r2, #28]
 513 0034 23F48023 		bic	r3, r3, #262144
 514 0038 D361     		str	r3, [r2, #28]
 218:Core/Src/usart.c **** 
 515              		.loc 1 218 5 view .LVU173
 516 003a 4FF44061 		mov	r1, #3072
 517 003e 0848     		ldr	r0, .L31+8
 518              	.LVL24:
 218:Core/Src/usart.c **** 
 519              		.loc 1 218 5 is_stmt 0 view .LVU174
 520 0040 FFF7FEFF 		bl	HAL_GPIO_DeInit
 521              	.LVL25:
 221:Core/Src/usart.c ****     HAL_DMA_DeInit(uartHandle->hdmatx);
 522              		.loc 1 221 5 is_stmt 1 view .LVU175
 523 0044 606F     		ldr	r0, [r4, #116]
 524 0046 FFF7FEFF 		bl	HAL_DMA_DeInit
 525              	.LVL26:
 222:Core/Src/usart.c **** 
 526              		.loc 1 222 5 view .LVU176
ARM GAS  C:\Users\cordi\AppData\Local\Temp\ccQk3OPa.s 			page 16


 527 004a 206F     		ldr	r0, [r4, #112]
 528 004c FFF7FEFF 		bl	HAL_DMA_DeInit
 529              	.LVL27:
 225:Core/Src/usart.c ****   /* USER CODE BEGIN USART3_MspDeInit 1 */
 530              		.loc 1 225 5 view .LVU177
 531 0050 2720     		movs	r0, #39
 532 0052 FFF7FEFF 		bl	HAL_NVIC_DisableIRQ
 533              	.LVL28:
 534              		.loc 1 230 1 is_stmt 0 view .LVU178
 535 0056 DCE7     		b	.L25
 536              	.L32:
 537              		.align	2
 538              	.L31:
 539 0058 00380140 		.word	1073821696
 540 005c 00480040 		.word	1073760256
 541 0060 00040048 		.word	1207960576
 542              		.cfi_endproc
 543              	.LFE126:
 545              		.global	hdma_usart3_tx
 546              		.section	.bss.hdma_usart3_tx,"aw",%nobits
 547              		.align	2
 550              	hdma_usart3_tx:
 551 0000 00000000 		.space	68
 551      00000000 
 551      00000000 
 551      00000000 
 551      00000000 
 552              		.global	hdma_usart3_rx
 553              		.section	.bss.hdma_usart3_rx,"aw",%nobits
 554              		.align	2
 557              	hdma_usart3_rx:
 558 0000 00000000 		.space	68
 558      00000000 
 558      00000000 
 558      00000000 
 558      00000000 
 559              		.global	huart3
 560              		.section	.bss.huart3,"aw",%nobits
 561              		.align	2
 564              	huart3:
 565 0000 00000000 		.space	136
 565      00000000 
 565      00000000 
 565      00000000 
 565      00000000 
 566              		.global	huart1
 567              		.section	.bss.huart1,"aw",%nobits
 568              		.align	2
 571              	huart1:
 572 0000 00000000 		.space	136
 572      00000000 
 572      00000000 
 572      00000000 
 572      00000000 
 573              		.text
 574              	.Letext0:
 575              		.file 2 "Drivers/CMSIS/Device/ST/STM32F3xx/Include/stm32f334x8.h"
ARM GAS  C:\Users\cordi\AppData\Local\Temp\ccQk3OPa.s 			page 17


 576              		.file 3 "c:\\program files (x86)\\arm gnu toolchain arm-none-eabi\\12.2 mpacbti-bet1\\arm-none-eab
 577              		.file 4 "c:\\program files (x86)\\arm gnu toolchain arm-none-eabi\\12.2 mpacbti-bet1\\arm-none-eab
 578              		.file 5 "Drivers/STM32F3xx_HAL_Driver/Inc/stm32f3xx_hal_def.h"
 579              		.file 6 "Drivers/STM32F3xx_HAL_Driver/Inc/stm32f3xx_hal_gpio.h"
 580              		.file 7 "Drivers/STM32F3xx_HAL_Driver/Inc/stm32f3xx_hal_dma.h"
 581              		.file 8 "Drivers/STM32F3xx_HAL_Driver/Inc/stm32f3xx_hal_uart.h"
 582              		.file 9 "Core/Inc/usart.h"
 583              		.file 10 "Drivers/STM32F3xx_HAL_Driver/Inc/stm32f3xx_hal_cortex.h"
 584              		.file 11 "Core/Inc/main.h"
ARM GAS  C:\Users\cordi\AppData\Local\Temp\ccQk3OPa.s 			page 18

